MPLINK 5.00, LINKER
Linker Map File - Created Fri Nov 29 16:50:58 2019

                                 Section Info
                  Section       Type    Address   Location Size(Bytes)
                ---------  ---------  ---------  ---------  ---------
               _entry_scn       code   0x000000    program   0x000006
       .code__user_putc.o       code   0x000006    program   0x000002
              high_vector       code   0x000008    program   0x000006
                   .cinit    romdata   0x00000e    program   0x00001a
         .code_vfprintf.o       code   0x000028    program   0x000c22
       .code_newtrymain.o       code   0x000c4a    program   0x00093a
       .code_heartrate2.o       code   0x001584    program   0x00091e
                     PROG       code   0x001ea2    program   0x000524
                   STDLIB       code   0x0023c6    program   0x000134
         .code_openxlcd.o       code   0x0024fa    program   0x0000ec
          .code_sprintf.o       code   0x0025e6    program   0x0000ac
               _cinit_scn       code   0x002692    program   0x00009e
             .code_putc.o       code   0x002730    program   0x000084
          .code_pw2open.o       code   0x0027b4    program   0x000076
         .code_putrxlcd.o       code   0x00282a    program   0x000076
          .code_fxm3232.o       code   0x0028a0    program   0x000070
                   STRING       code   0x002910    program   0x000066
         .code_setddram.o       code   0x002976    program   0x00005e
         .code_setcgram.o       code   0x0029d4    program   0x00005e
         .code_pw2setdc.o       code   0x002a32    program   0x00005e
             .stringtable    romdata   0x002a90    program   0x00005c
         .code_writdata.o       code   0x002aec    program   0x00005c
         .code_wcmdxlcd.o       code   0x002b48    program   0x00005c
         .code_putsxlcd.o       code   0x002ba4    program   0x00005a
          .code_rb1open.o       code   0x002bfe    program   0x000054
         .code_readdata.o       code   0x002c52    program   0x000052
         .code_readaddr.o       code   0x002ca4    program   0x000052
         .code_fxd3232u.o       code   0x002cf6    program   0x000048
          .code_adcopen.o       code   0x002d3e    program   0x000048
      .code_speakermain.o       code   0x002d86    program   0x000044
           .code_t1open.o       code   0x002dca    program   0x000042
           .code_t0read.o       code   0x002e0c    program   0x00003e
         .code_busyxlcd.o       code   0x002e4a    program   0x00003e
          .code_t0write.o       code   0x002e88    program   0x000038
           .code_t0open.o       code   0x002ec0    program   0x000038
           .code_t2open.o       code   0x002ef8    program   0x000036
          .code_cp1open.o       code   0x002f2e    program   0x000030
             D10KTCYXCODE       code   0x002f5e    program   0x00002e
         .code_fxd1616u.o       code   0x002f8c    program   0x00002c
                    CTYPE       code   0x002fb8    program   0x000024
              D1KTCYXCODE       code   0x002fdc    program   0x000020
                    .code       code   0x002ffc    program   0x000020
             _startup_scn       code   0x00301c    program   0x00001c
                    STDIO       code   0x003038    program   0x00001c
              D10TCYXCODE       code   0x003054    program   0x000016
          .code_adcread.o       code   0x00306a    program   0x000012
      .romdata_vfprintf.o    romdata   0x00307c    program   0x000011
      .romdata_putsxlcd.o    romdata   0x00308d    program   0x000000
        .romdata___init.o    romdata   0x00308d    program   0x000000
        .idata___init.o_i    romdata   0x00308d    program   0x000000
      .idata_readaddr.o_i    romdata   0x00308d    program   0x000000
       .romdata_t0write.o    romdata   0x00308d    program   0x000000
       .idata_t0write.o_i    romdata   0x00308d    program   0x000000
      .romdata_readaddr.o    romdata   0x00308d    program   0x000000
      .romdata_pw2setdc.o    romdata   0x00308d    program   0x000000
      .idata_pw2setdc.o_i    romdata   0x00308d    program   0x000000
      .idata_readdata.o_i    romdata   0x00308d    program   0x000000
        .romdata_t0read.o    romdata   0x00308d    program   0x000000
        .idata_t0read.o_i    romdata   0x00308d    program   0x000000
       .romdata_adcread.o    romdata   0x00308d    program   0x000000
       .idata_adcread.o_i    romdata   0x00308d    program   0x000000
      .romdata_readdata.o    romdata   0x00308d    program   0x000000
        .romdata_t2open.o    romdata   0x00308d    program   0x000000
        .idata_t2open.o_i    romdata   0x00308d    program   0x000000
      .idata_setcgram.o_i    romdata   0x00308d    program   0x000000
        .romdata_t1open.o    romdata   0x00308d    program   0x000000
         .idata_c018i.o_i    romdata   0x00308d    program   0x000000
         .romdata_c018i.o    romdata   0x00308d    program   0x000000
    .romdata__user_putc.o    romdata   0x00308d    program   0x000000
    .idata__user_putc.o_i    romdata   0x00308d    program   0x000000
      .idata_busyxlcd.o_i    romdata   0x00308d    program   0x000000
      .romdata_busyxlcd.o    romdata   0x00308d    program   0x000000
          .romdata_putc.o    romdata   0x00308d    program   0x000000
          .idata_putc.o_i    romdata   0x00308d    program   0x000000
      .idata_openxlcd.o_i    romdata   0x00308d    program   0x000000
      .romdata_openxlcd.o    romdata   0x00308d    program   0x000000
       .romdata_fxm3232.o    romdata   0x00308d    program   0x000000
       .idata_fxm3232.o_i    romdata   0x00308d    program   0x000000
      .idata_putrxlcd.o_i    romdata   0x00308d    program   0x000000
      .romdata_fxd3232u.o    romdata   0x00308d    program   0x000000
      .idata_fxd3232u.o_i    romdata   0x00308d    program   0x000000
      .romdata_putrxlcd.o    romdata   0x00308d    program   0x000000
      .idata_vfprintf.o_i    romdata   0x00308d    program   0x000000
      .idata_putsxlcd.o_i    romdata   0x00308d    program   0x000000
       .romdata_sprintf.o    romdata   0x00308d    program   0x000000
       .idata_sprintf.o_i    romdata   0x00308d    program   0x000000
    .romdata_newtrymain.o    romdata   0x00308d    program   0x000000
   .idata_speakermain.o_i    romdata   0x00308d    program   0x000000
   .romdata_speakermain.o    romdata   0x00308d    program   0x000000
       .idata_adcbusy.o_i    romdata   0x00308d    program   0x000000
       .romdata_adcbusy.o    romdata   0x00308d    program   0x000000
      .idata_adcclose.o_i    romdata   0x00308d    program   0x000000
      .romdata_adcclose.o    romdata   0x00308d    program   0x000000
      .idata_cp1close.o_i    romdata   0x00308d    program   0x000000
      .romdata_cp1close.o    romdata   0x00308d    program   0x000000
       .idata_adcconv.o_i    romdata   0x00308d    program   0x000000
       .romdata_adcconv.o    romdata   0x00308d    program   0x000000
    .romdata_heartrate2.o    romdata   0x00308d    program   0x000000
      .romdata_writdata.o    romdata   0x00308d    program   0x000000
      .idata_fxd1616u.o_i    romdata   0x00308d    program   0x000000
      .romdata_fxd1616u.o    romdata   0x00308d    program   0x000000
      .idata_writdata.o_i    romdata   0x00308d    program   0x000000
        .idata_t1open.o_i    romdata   0x00308d    program   0x000000
      .romdata_setcgram.o    romdata   0x00308d    program   0x000000
        .romdata_t0open.o    romdata   0x00308d    program   0x000000
        .idata_t0open.o_i    romdata   0x00308d    program   0x000000
      .idata_setddram.o_i    romdata   0x00308d    program   0x000000
       .romdata_rb1open.o    romdata   0x00308d    program   0x000000
       .idata_rb1open.o_i    romdata   0x00308d    program   0x000000
      .romdata_setddram.o    romdata   0x00308d    program   0x000000
       .romdata_pw2open.o    romdata   0x00308d    program   0x000000
       .idata_pw2open.o_i    romdata   0x00308d    program   0x000000
       .idata_adcopen.o_i    romdata   0x00308d    program   0x000000
       .romdata_adcopen.o    romdata   0x00308d    program   0x000000
      .romdata_wcmdxlcd.o    romdata   0x00308d    program   0x000000
       .idata_cp1open.o_i    romdata   0x00308d    program   0x000000
       .romdata_cp1open.o    romdata   0x00308d    program   0x000000
      .idata_wcmdxlcd.o_i    romdata   0x00308d    program   0x000000
          .code_adcbusy.o       code   0x00308e    program   0x00000a
            .code_c018i.o       code   0x00308e    program   0x000000
         .code_cp1close.o       code   0x003098    program   0x000006
         .code_adcclose.o       code   0x00309e    program   0x000006
          .code_adcconv.o       code   0x0030a4    program   0x000004
           .code___init.o       code   0x0030a8    program   0x000002
    .idata_newtrymain.o_i    romdata   0x0030aa    program   0x000043
    .idata_heartrate2.o_i    romdata   0x0030ed    program   0x00000c
.config_300001_heartrate2.o    romdata   0x300001    program   0x000001
.config_300003_heartrate2.o    romdata   0x300003    program   0x000001
.config_300006_heartrate2.o    romdata   0x300006    program   0x000001
                MATH_DATA      udata   0x000000       data   0x000014
                 .tmpdata      udata   0x000014       data   0x00000a
             high_ISR_tmp      udata   0x00001e       data   0x000002
                DELAYDAT2      udata   0x000020       data   0x000001
                DELAYDAT1      udata   0x000021       data   0x000001
      .idata_newtrymain.o      idata   0x000080       data   0x000043
      .udata_heartrate2.o      udata   0x000100       data   0x0000d2
      .udata_newtrymain.o      udata   0x0001d2       data   0x000016
      .idata_heartrate2.o      idata   0x0001e8       data   0x00000c
           .udata_c018i.o      udata   0x0001f4       data   0x00000a
          .udata_t0read.o      udata   0x0001fe       data   0x000000
         .idata_adcread.o      idata   0x0001fe       data   0x000000
         .udata_adcread.o      udata   0x0001fe       data   0x000000
          .idata_t2open.o      idata   0x0001fe       data   0x000000
          .udata_t2open.o      udata   0x0001fe       data   0x000000
          .idata_t1open.o      idata   0x0001fe       data   0x000000
          .udata_t1open.o      udata   0x0001fe       data   0x000000
          .idata_t0open.o      idata   0x0001fe       data   0x000000
          .udata_t0open.o      udata   0x0001fe       data   0x000000
         .idata_rb1open.o      idata   0x0001fe       data   0x000000
         .udata_rb1open.o      udata   0x0001fe       data   0x000000
         .idata_pw2open.o      idata   0x0001fe       data   0x000000
         .udata_pw2open.o      udata   0x0001fe       data   0x000000
         .idata_cp1open.o      idata   0x0001fe       data   0x000000
         .udata_cp1open.o      udata   0x0001fe       data   0x000000
         .idata_adcopen.o      idata   0x0001fe       data   0x000000
      .idata__user_putc.o      idata   0x0001fe       data   0x000000
      .udata__user_putc.o      udata   0x0001fe       data   0x000000
            .idata_putc.o      idata   0x0001fe       data   0x000000
            .udata_putc.o      udata   0x0001fe       data   0x000000
         .idata_fxm3232.o      idata   0x0001fe       data   0x000000
         .udata_fxm3232.o      udata   0x0001fe       data   0x000000
        .idata_fxd3232u.o      idata   0x0001fe       data   0x000000
        .udata_fxd3232u.o      udata   0x0001fe       data   0x000000
        .idata_vfprintf.o      idata   0x0001fe       data   0x000000
        .udata_vfprintf.o      udata   0x0001fe       data   0x000000
         .idata_sprintf.o      idata   0x0001fe       data   0x000000
         .udata_sprintf.o      udata   0x0001fe       data   0x000000
          .idata___init.o      idata   0x0001fe       data   0x000000
          .udata___init.o      udata   0x0001fe       data   0x000000
         .idata_t0write.o      idata   0x0001fe       data   0x000000
         .udata_t0write.o      udata   0x0001fe       data   0x000000
        .idata_pw2setdc.o      idata   0x0001fe       data   0x000000
        .udata_pw2setdc.o      udata   0x0001fe       data   0x000000
          .idata_t0read.o      idata   0x0001fe       data   0x000000
        .idata_wcmdxlcd.o      idata   0x0001fe       data   0x000000
        .udata_wcmdxlcd.o      udata   0x0001fe       data   0x000000
        .idata_setddram.o      idata   0x0001fe       data   0x000000
        .udata_setddram.o      udata   0x0001fe       data   0x000000
        .idata_setcgram.o      idata   0x0001fe       data   0x000000
        .udata_setcgram.o      udata   0x0001fe       data   0x000000
        .idata_readdata.o      idata   0x0001fe       data   0x000000
        .udata_readdata.o      udata   0x0001fe       data   0x000000
        .idata_readaddr.o      idata   0x0001fe       data   0x000000
        .udata_readaddr.o      udata   0x0001fe       data   0x000000
        .idata_putsxlcd.o      idata   0x0001fe       data   0x000000
        .udata_putsxlcd.o      udata   0x0001fe       data   0x000000
        .idata_putrxlcd.o      idata   0x0001fe       data   0x000000
        .udata_putrxlcd.o      udata   0x0001fe       data   0x000000
        .idata_openxlcd.o      idata   0x0001fe       data   0x000000
        .udata_openxlcd.o      udata   0x0001fe       data   0x000000
        .idata_busyxlcd.o      idata   0x0001fe       data   0x000000
         .udata_adcopen.o      udata   0x0001fe       data   0x000000
        .idata_fxd1616u.o      idata   0x0001fe       data   0x000000
        .udata_fxd1616u.o      udata   0x0001fe       data   0x000000
           .idata_c018i.o      idata   0x0001fe       data   0x000000
         .idata_adcconv.o      idata   0x0001fe       data   0x000000
         .udata_adcconv.o      udata   0x0001fe       data   0x000000
        .idata_cp1close.o      idata   0x0001fe       data   0x000000
        .udata_cp1close.o      udata   0x0001fe       data   0x000000
        .idata_adcclose.o      idata   0x0001fe       data   0x000000
        .udata_adcclose.o      udata   0x0001fe       data   0x000000
         .idata_adcbusy.o      idata   0x0001fe       data   0x000000
         .udata_adcbusy.o      udata   0x0001fe       data   0x000000
     .idata_speakermain.o      idata   0x0001fe       data   0x000000
     .udata_speakermain.o      udata   0x0001fe       data   0x000000
        .udata_busyxlcd.o      udata   0x0001fe       data   0x000000
        .idata_writdata.o      idata   0x0001fe       data   0x000000
        .udata_writdata.o      udata   0x0001fe       data   0x000000
                   .stack      udata   0x000500       data   0x000100
            SFR_UNBANKED0      udata   0x000f80       data   0x000080



                              Program Memory Usage 
                               Start         End      
                           ---------   ---------      
                            0x000000    0x00308c      
                            0x00308e    0x0030f8      
                            0x300001    0x300001      
                            0x300003    0x300003      
                            0x300006    0x300006      
            12539 out of 33048 program addresses used, program memory utilization is 37%



                              Symbols - Sorted by Name
                     Name    Address   Location    Storage File                     
                ---------  ---------  ---------  --------- ---------                
                   ADCcon   0x0019fe    program     extern C:\Users\test\Desktop\NewIntegrate\lcdtest3.X\heartrate2.c
                  BusyADC   0x00308e    program     extern E:\3.46\pic18-lt\cxx-framework\src\pmc_common\ADC\adcbusy.c
                 BusyXLCD   0x002e4a    program     extern C:\Users\test\Desktop\NewIntegrate\lcdtest3.X\busyxlcd.c
                 CloseADC   0x00309e    program     extern E:\3.46\pic18-lt\cxx-framework\src\pmc_common\ADC\adcclose.c
            CloseCapture1   0x003098    program     extern E:\3.46\pic18-lt\cxx-framework\src\pmc_common\CCP\cp1close.c
               ConvertADC   0x0030a4    program     extern E:\3.46\pic18-lt\cxx-framework\src\pmc_common\ADC\adcconv.c
                   D10K_1   0x002f6a    program     static E:\3.46\pic18-lt\cxx-framework\src\traditional\delays\d10ktcyx.asm
                    D10Kl   0x002f76    program     static E:\3.46\pic18-lt\cxx-framework\src\traditional\delays\d10ktcyx.asm
                    D10Kx   0x002f68    program     static E:\3.46\pic18-lt\cxx-framework\src\traditional\delays\d10ktcyx.asm
                    D10_1   0x003064    program     static E:\3.46\pic18-lt\cxx-framework\src\traditional\delays\d10tcyx.asm
                     D10x   0x00305c    program     static E:\3.46\pic18-lt\cxx-framework\src\traditional\delays\d10tcyx.asm
                   D1616S   0x00219c    program     static E:\3.46\pic18-lt\cxx-framework\src\traditional\math\fxd1616s.asm
                D1616SNEG   0x0021aa    program     static E:\3.46\pic18-lt\cxx-framework\src\traditional\math\fxd1616s.asm
                 D1616SOK   0x0021a6    program     static E:\3.46\pic18-lt\cxx-framework\src\traditional\math\fxd1616s.asm
                  D1616SX   0x0021bc    program     static E:\3.46\pic18-lt\cxx-framework\src\traditional\math\fxd1616s.asm
                    D1K_1   0x002fe8    program     static E:\3.46\pic18-lt\cxx-framework\src\traditional\delays\d1ktcyx.asm
                     D1Kx   0x002fe6    program     static E:\3.46\pic18-lt\cxx-framework\src\traditional\delays\d1ktcyx.asm
                  DA1616S   0x00218c    program     static E:\3.46\pic18-lt\cxx-framework\src\traditional\math\fxd1616s.asm
             Delay10KTCYx   0x002f5e    program     extern E:\3.46\pic18-lt\cxx-framework\src\traditional\delays\d10ktcyx.asm
              Delay10TCYx   0x003054    program     extern E:\3.46\pic18-lt\cxx-framework\src\traditional\delays\d10tcyx.asm
              Delay1KTCYx   0x002fdc    program     extern E:\3.46\pic18-lt\cxx-framework\src\traditional\delays\d1ktcyx.asm
            DelayFor18TCY   0x001918    program     extern C:\Users\test\Desktop\NewIntegrate\lcdtest3.X\heartrate2.c
             DelayPORXLCD   0x0019dc    program     extern C:\Users\test\Desktop\NewIntegrate\lcdtest3.X\heartrate2.c
                DelayXLCD   0x0019f2    program     extern C:\Users\test\Desktop\NewIntegrate\lcdtest3.X\heartrate2.c
                 FLO1632S   0x001ea6    program     extern E:\3.46\pic18-lt\cxx-framework\src\traditional\math\cast16FP.asm
                 FLO1632U   0x001ea2    program     extern E:\3.46\pic18-lt\cxx-framework\src\traditional\math\cast16FP.asm
                    FPA32   0x001ece    program     extern E:\3.46\pic18-lt\cxx-framework\src\traditional\math\addFP.asm
                    FPD32   0x001ffa    program     extern E:\3.46\pic18-lt\cxx-framework\src\traditional\math\divFP.asm
                    FPM32   0x0020a0    program     extern E:\3.46\pic18-lt\cxx-framework\src\traditional\math\mulFP.asm
                    FPS32   0x001ecc    program     extern E:\3.46\pic18-lt\cxx-framework\src\traditional\math\addFP.asm
                 FXD1616S   0x00217a    program     extern E:\3.46\pic18-lt\cxx-framework\src\traditional\math\fxd1616s.asm
                 FXD1616U   0x002f8c    program     extern E:\3.46\pic18-lt\cxx-framework\src\traditional\math\fxd1616u.c
                 FXD3232U   0x002cf6    program     extern E:\3.46\pic18-lt\cxx-framework\src\traditional\math\fxd3232u.c
                 FXM1616S   0x0021c6    program     extern E:\3.46\pic18-lt\cxx-framework\src\traditional\math\fxm1616s.asm
                 FXM1616U   0x002220    program     extern E:\3.46\pic18-lt\cxx-framework\src\traditional\math\fxm1616u.asm
                  FXM3232   0x0028a0    program     extern E:\3.46\pic18-lt\cxx-framework\src\traditional\math\fxm3232.c
                  INT3216   0x00225c    program     extern E:\3.46\pic18-lt\cxx-framework\src\traditional\math\castFP16.asm
                   KeySel   0x001a44    program     extern C:\Users\test\Desktop\NewIntegrate\lcdtest3.X\heartrate2.c
                  OneByte   0x0024e8    program     static E:\3.46\pic18-lt\cxx-framework\src\traditional\stdclib\itobcd.asm
                  OpenADC   0x002d3e    program     extern E:\3.46\pic18-lt\cxx-framework\src\pmc_common\ADC\adcopen.c
             OpenCapture1   0x002f2e    program     extern E:\3.46\pic18-lt\cxx-framework\src\pmc_common\CCP\cp1open.c
                 OpenPWM2   0x0027b4    program     extern E:\3.46\pic18-lt\cxx-framework\src\pmc_common\PWM\pw2open.c
               OpenRB1INT   0x002bfe    program     extern E:\3.46\pic18-lt\cxx-framework\src\pmc_common\PORTB\rb1open.c
               OpenTimer0   0x002ec0    program     extern E:\3.46\pic18-lt\cxx-framework\src\pmc_common\Timers\t0open.c
               OpenTimer1   0x002dca    program     extern E:\3.46\pic18-lt\cxx-framework\src\pmc_common\Timers\t1open.c
               OpenTimer2   0x002ef8    program     extern E:\3.46\pic18-lt\cxx-framework\src\pmc_common\Timers\t2open.c
                 OpenXLCD   0x0024fa    program     extern C:\Users\test\Desktop\NewIntegrate\lcdtest3.X\openxlcd.c
                ProcLower   0x00249c    program     static E:\3.46\pic18-lt\cxx-framework\src\traditional\stdclib\itoa.asm
                ProcUpper   0x002492    program     static E:\3.46\pic18-lt\cxx-framework\src\traditional\stdclib\itoa.asm
                  ReadADC   0x00306a    program     extern E:\3.46\pic18-lt\cxx-framework\src\pmc_common\ADC\adcread.c
             ReadAddrXLCD   0x002ca4    program     extern C:\Users\test\Desktop\NewIntegrate\lcdtest3.X\readaddr.c
             ReadDataXLCD   0x002c52    program     extern C:\Users\test\Desktop\NewIntegrate\lcdtest3.X\readdata.c
               ReadTimer0   0x002e0c    program     extern E:\3.46\pic18-lt\cxx-framework\src\pmc_common\Timers\t0read.c
                 Resettmp   0x001106    program     extern C:\Users\test\Desktop\NewIntegrate\lcdtest3.X\newtrymain.c
             SetCGRamAddr   0x0029d4    program     extern C:\Users\test\Desktop\NewIntegrate\lcdtest3.X\setcgram.c
                SetDCPWM2   0x002a32    program     extern E:\3.46\pic18-lt\cxx-framework\src\pmc_common\PWM\pw2setdc.c
             SetDDRamAddr   0x002976    program     extern C:\Users\test\Desktop\NewIntegrate\lcdtest3.X\setddram.c
               TSIGN1616A   0x002212    program     static E:\3.46\pic18-lt\cxx-framework\src\traditional\math\fxm1616s.asm
                 TstLower   0x002486    program     static E:\3.46\pic18-lt\cxx-framework\src\traditional\stdclib\itoa.asm
                 TstUpper   0x002480    program     static E:\3.46\pic18-lt\cxx-framework\src\traditional\stdclib\itoa.asm
             WriteCmdXLCD   0x002b48    program     extern C:\Users\test\Desktop\NewIntegrate\lcdtest3.X\wcmdxlcd.c
            WriteDataXLCD   0x002aec    program     extern C:\Users\test\Desktop\NewIntegrate\lcdtest3.X\writdata.c
              WriteTimer0   0x002e88    program     extern E:\3.46\pic18-lt\cxx-framework\src\pmc_common\Timers\t0write.c
                   _2jEnd   0x002960    program     static E:\3.46\pic18-lt\cxx-framework\src\traditional\stdclib\slenpgm.asm
       _D10KTCYXCODE_0010   0x002f6e    program     static E:\3.46\pic18-lt\cxx-framework\src\traditional\delays\d10ktcyx.asm
       _D10KTCYXCODE_001C   0x002f7a    program     static E:\3.46\pic18-lt\cxx-framework\src\traditional\delays\d10ktcyx.asm
        _D10TCYXCODE_000A   0x00305e    program     static E:\3.46\pic18-lt\cxx-framework\src\traditional\delays\d10tcyx.asm
        _D10TCYXCODE_000C   0x003060    program     static E:\3.46\pic18-lt\cxx-framework\src\traditional\delays\d10tcyx.asm
        _D10TCYXCODE_000E   0x003062    program     static E:\3.46\pic18-lt\cxx-framework\src\traditional\delays\d10tcyx.asm
        _D1KTCYXCODE_0010   0x002fec    program     static E:\3.46\pic18-lt\cxx-framework\src\traditional\delays\d1ktcyx.asm
        _D1KTCYXCODE_0016   0x002ff2    program     static E:\3.46\pic18-lt\cxx-framework\src\traditional\delays\d1ktcyx.asm
                 __FpExit   0x0022c6    program     extern E:\3.46\pic18-lt\cxx-framework\src\traditional\math\packFP.asm
                 __FpPack   0x0022f2    program     extern E:\3.46\pic18-lt\cxx-framework\src\traditional\math\packFP.asm
            __FpReturnNaN   0x0022ba    program     extern E:\3.46\pic18-lt\cxx-framework\src\traditional\math\packFP.asm
         __FpReturnNegInf   0x0022cc    program     extern E:\3.46\pic18-lt\cxx-framework\src\traditional\math\packFP.asm
        __FpReturnNegZero   0x0022e4    program     extern E:\3.46\pic18-lt\cxx-framework\src\traditional\math\packFP.asm
         __FpReturnPosInf   0x0022d2    program     extern E:\3.46\pic18-lt\cxx-framework\src\traditional\math\packFP.asm
        __FpReturnPosZero   0x0022ec    program     extern E:\3.46\pic18-lt\cxx-framework\src\traditional\math\packFP.asm
        __FpReturnSignInf   0x0022c8    program     extern E:\3.46\pic18-lt\cxx-framework\src\traditional\math\packFP.asm
       __FpReturnSignZero   0x0022e0    program     extern E:\3.46\pic18-lt\cxx-framework\src\traditional\math\packFP.asm
              __FpReturnW   0x00234a    program     extern E:\3.46\pic18-lt\cxx-framework\src\traditional\math\packFP.asm
              __FpUnPackA   0x00236a    program     extern E:\3.46\pic18-lt\cxx-framework\src\traditional\math\UnpackFP.asm
              __FpUnPackB   0x00239a    program     extern E:\3.46\pic18-lt\cxx-framework\src\traditional\math\UnpackFP.asm
         ___else_lbl00002   0x0027f0    program     static                          
         ___else_lbl00004   0x0027fe    program     static                          
          ___for_lbl00006   0x000da0    program     static                          
          ___for_lbl00007   0x000da6    program     static                          
          ___for_lbl00008   0x000d44    program     static                          
           ___if_lbl00001   0x0027f4    program     static                          
           ___if_lbl00003   0x002800    program     static                          
       ___return_lbl00000   0x002fb6    program     static                          
       ___return_lbl00000   0x002812    program     static                          
       ___return_lbl00000   0x000004    program     static                          
       ___return_lbl00000   0x002d3c    program     static                          
       ___return_lbl00000   0x00290e    program     static                          
       ___return_lbl00001   0x003036    program     static                          
       ___return_lbl00002   0x00272e    program     static                          
       ___return_lbl00005   0x000daa    program     static                          
       ___return_lbl00063   0x00193c    program     static                          
       ___return_lbl00088   0x00000c    program     static                          
               __config_0   0x300001    program     static C:\Users\test\Desktop\NewIntegrate\lcdtest3.X\heartrate2.c
               __config_1   0x300003    program     static C:\Users\test\Desktop\NewIntegrate\lcdtest3.X\heartrate2.c
               __config_2   0x300006    program     static C:\Users\test\Desktop\NewIntegrate\lcdtest3.X\heartrate2.c
                   __init   0x0030a8    program     extern E:\3.46\pic18-lt\cxx-framework\src\traditional\stdclib\__init.c
                   __pa_0   0x000968    program     static E:\3.46\pic18-lt\cxx-framework\src\traditional\stdclib\vfprintf.c
                   __pa_1   0x000970    program     static E:\3.46\pic18-lt\cxx-framework\src\traditional\stdclib\vfprintf.c
                  __pa_10   0x000a24    program     static E:\3.46\pic18-lt\cxx-framework\src\traditional\stdclib\vfprintf.c
                  __pa_11   0x000a32    program     static E:\3.46\pic18-lt\cxx-framework\src\traditional\stdclib\vfprintf.c
                  __pa_12   0x000a48    program     static E:\3.46\pic18-lt\cxx-framework\src\traditional\stdclib\vfprintf.c
                  __pa_13   0x000a62    program     static E:\3.46\pic18-lt\cxx-framework\src\traditional\stdclib\vfprintf.c
                  __pa_14   0x000a7a    program     static E:\3.46\pic18-lt\cxx-framework\src\traditional\stdclib\vfprintf.c
                  __pa_15   0x000a8a    program     static E:\3.46\pic18-lt\cxx-framework\src\traditional\stdclib\vfprintf.c
                  __pa_16   0x000aa0    program     static E:\3.46\pic18-lt\cxx-framework\src\traditional\stdclib\vfprintf.c
                  __pa_17   0x000ab2    program     static E:\3.46\pic18-lt\cxx-framework\src\traditional\stdclib\vfprintf.c
                  __pa_18   0x000ac4    program     static E:\3.46\pic18-lt\cxx-framework\src\traditional\stdclib\vfprintf.c
                  __pa_19   0x000ace    program     static E:\3.46\pic18-lt\cxx-framework\src\traditional\stdclib\vfprintf.c
                   __pa_2   0x00097a    program     static E:\3.46\pic18-lt\cxx-framework\src\traditional\stdclib\vfprintf.c
                  __pa_20   0x000ade    program     static E:\3.46\pic18-lt\cxx-framework\src\traditional\stdclib\vfprintf.c
                  __pa_21   0x000aee    program     static E:\3.46\pic18-lt\cxx-framework\src\traditional\stdclib\vfprintf.c
                  __pa_22   0x000afe    program     static E:\3.46\pic18-lt\cxx-framework\src\traditional\stdclib\vfprintf.c
                  __pa_23   0x000b0a    program     static E:\3.46\pic18-lt\cxx-framework\src\traditional\stdclib\vfprintf.c
                  __pa_24   0x000b18    program     static E:\3.46\pic18-lt\cxx-framework\src\traditional\stdclib\vfprintf.c
                  __pa_25   0x000b20    program     static E:\3.46\pic18-lt\cxx-framework\src\traditional\stdclib\vfprintf.c
                  __pa_26   0x000b2a    program     static E:\3.46\pic18-lt\cxx-framework\src\traditional\stdclib\vfprintf.c
                  __pa_27   0x000b34    program     static E:\3.46\pic18-lt\cxx-framework\src\traditional\stdclib\vfprintf.c
                  __pa_28   0x000b3c    program     static E:\3.46\pic18-lt\cxx-framework\src\traditional\stdclib\vfprintf.c
                  __pa_29   0x000b4a    program     static E:\3.46\pic18-lt\cxx-framework\src\traditional\stdclib\vfprintf.c
                   __pa_3   0x000984    program     static E:\3.46\pic18-lt\cxx-framework\src\traditional\stdclib\vfprintf.c
                  __pa_30   0x000b66    program     static E:\3.46\pic18-lt\cxx-framework\src\traditional\stdclib\vfprintf.c
                  __pa_31   0x000b80    program     static E:\3.46\pic18-lt\cxx-framework\src\traditional\stdclib\vfprintf.c
                  __pa_32   0x000b9a    program     static E:\3.46\pic18-lt\cxx-framework\src\traditional\stdclib\vfprintf.c
                  __pa_33   0x000bb2    program     static E:\3.46\pic18-lt\cxx-framework\src\traditional\stdclib\vfprintf.c
                  __pa_34   0x000bbc    program     static E:\3.46\pic18-lt\cxx-framework\src\traditional\stdclib\vfprintf.c
                  __pa_35   0x000bca    program     static E:\3.46\pic18-lt\cxx-framework\src\traditional\stdclib\vfprintf.c
                  __pa_36   0x000bd2    program     static E:\3.46\pic18-lt\cxx-framework\src\traditional\stdclib\vfprintf.c
                  __pa_37   0x000bdc    program     static E:\3.46\pic18-lt\cxx-framework\src\traditional\stdclib\vfprintf.c
                  __pa_38   0x000bec    program     static E:\3.46\pic18-lt\cxx-framework\src\traditional\stdclib\vfprintf.c
                  __pa_39   0x000bfa    program     static E:\3.46\pic18-lt\cxx-framework\src\traditional\stdclib\vfprintf.c
                   __pa_4   0x00099c    program     static E:\3.46\pic18-lt\cxx-framework\src\traditional\stdclib\vfprintf.c
                  __pa_40   0x000c06    program     static E:\3.46\pic18-lt\cxx-framework\src\traditional\stdclib\vfprintf.c
                  __pa_41   0x000c12    program     static E:\3.46\pic18-lt\cxx-framework\src\traditional\stdclib\vfprintf.c
                  __pa_42   0x000c1a    program     static E:\3.46\pic18-lt\cxx-framework\src\traditional\stdclib\vfprintf.c
                  __pa_43   0x000c24    program     static E:\3.46\pic18-lt\cxx-framework\src\traditional\stdclib\vfprintf.c
                  __pa_44   0x000c2a    program     static E:\3.46\pic18-lt\cxx-framework\src\traditional\stdclib\vfprintf.c
                  __pa_45   0x000c34    program     static E:\3.46\pic18-lt\cxx-framework\src\traditional\stdclib\vfprintf.c
                  __pa_46   0x000c40    program     static E:\3.46\pic18-lt\cxx-framework\src\traditional\stdclib\vfprintf.c
                   __pa_5   0x0009b0    program     static E:\3.46\pic18-lt\cxx-framework\src\traditional\stdclib\vfprintf.c
                   __pa_6   0x0009cc    program     static E:\3.46\pic18-lt\cxx-framework\src\traditional\stdclib\vfprintf.c
                   __pa_7   0x0009d6    program     static E:\3.46\pic18-lt\cxx-framework\src\traditional\stdclib\vfprintf.c
                   __pa_8   0x0009e2    program     static E:\3.46\pic18-lt\cxx-framework\src\traditional\stdclib\vfprintf.c
                   __pa_9   0x000a04    program     static E:\3.46\pic18-lt\cxx-framework\src\traditional\stdclib\vfprintf.c
               __string_0   0x002ab6    program     static C:\Users\test\Desktop\NewIntegrate\lcdtest3.X\heartrate2.c
               __string_0   0x002add    program     static C:\Users\test\Desktop\NewIntegrate\lcdtest3.X\newtrymain.c
               __string_1   0x002ace    program     static C:\Users\test\Desktop\NewIntegrate\lcdtest3.X\newtrymain.c
               __string_1   0x002aae    program     static C:\Users\test\Desktop\NewIntegrate\lcdtest3.X\heartrate2.c
               __string_2   0x002aa1    program     static C:\Users\test\Desktop\NewIntegrate\lcdtest3.X\heartrate2.c
               __string_3   0x002a9a    program     static C:\Users\test\Desktop\NewIntegrate\lcdtest3.X\heartrate2.c
               __string_4   0x002a90    program     static C:\Users\test\Desktop\NewIntegrate\lcdtest3.X\heartrate2.c
               __tmplbl_1   0x000d58    program     static                          
              __tmplbl_42   0x000afe    program     static                          
              __tmplbl_43   0x000946    program     static                          
              __tmplbl_44   0x00092c    program     static                          
              __tmplbl_85   0x00007e    program     static                          
            __zero_memory   0x002ffc    program     extern E:\3.46\pic18-lt\cxx-framework\src\traditional\proc\p18f452.asm
                _do_cinit   0x002692    program     extern E:\3.46\pic18-lt\cxx-framework\src\traditional\startup\c018i.c
                   _entry   0x000000    program     extern E:\3.46\pic18-lt\cxx-framework\src\traditional\startup\c018i.c
                   _false   0x002d38    program     static                          
                 _startup   0x00301c    program     extern E:\3.46\pic18-lt\cxx-framework\src\traditional\startup\c018i.c
              _usart_putc   0x003038    program     extern E:\3.46\pic18-lt\cxx-framework\src\pmc_common\USART\_usartpc.asm
               _user_putc   0x000006    program     extern E:\3.46\pic18-lt\cxx-framework\src\traditional\stdclib\_user_putc.c
            approximation   0x000f56    program     extern C:\Users\test\Desktop\NewIntegrate\lcdtest3.X\newtrymain.c
                compare_l   0x003012    program     static E:\3.46\pic18-lt\cxx-framework\src\traditional\proc\p18f452.asm
               configTemp   0x000dba    program     extern C:\Users\test\Desktop\NewIntegrate\lcdtest3.X\newtrymain.c
            configuretmr0   0x001584    program     extern C:\Users\test\Desktop\NewIntegrate\lcdtest3.X\heartrate2.c
            configuretmr1   0x0015a2    program     extern C:\Users\test\Desktop\NewIntegrate\lcdtest3.X\heartrate2.c
                copy_loop   0x002704    program     static                          
            copy_one_byte   0x00270a    program     static                          
                     done   0x00272e    program     static                          
             done_copying   0x002718    program     static                          
                  endloop   0x002fb2    program     static                          
                 errorcal   0x001124    program     extern C:\Users\test\Desktop\NewIntegrate\lcdtest3.X\newtrymain.c
           finddifference   0x00193e    program     extern C:\Users\test\Desktop\NewIntegrate\lcdtest3.X\heartrate2.c
                 fulltemp   0x00155e    program     extern C:\Users\test\Desktop\NewIntegrate\lcdtest3.X\newtrymain.c
           heartbeatstart   0x001bfe    program     extern C:\Users\test\Desktop\NewIntegrate\lcdtest3.X\heartrate2.c
            heartbeatstop   0x001c0c    program     extern C:\Users\test\Desktop\NewIntegrate\lcdtest3.X\heartrate2.c
                 high_ISR   0x001cc4    program     extern C:\Users\test\Desktop\NewIntegrate\lcdtest3.X\heartrate2.c
    high_interrupt_vector   0x000008    program     extern C:\Users\test\Desktop\NewIntegrate\lcdtest3.X\heartrate2.c
                    hrate   0x001c86    program     extern C:\Users\test\Desktop\NewIntegrate\lcdtest3.X\heartrate2.c
                      hrv   0x001a96    program     extern C:\Users\test\Desktop\NewIntegrate\lcdtest3.X\heartrate2.c
                  isdigit   0x002fb8    program     extern E:\3.46\pic18-lt\cxx-framework\src\traditional\stdclib\isdigit.asm
                   itoBCD   0x0024a6    program     extern E:\3.46\pic18-lt\cxx-framework\src\traditional\stdclib\itobcd.asm
                     itoa   0x0023c6    program     extern E:\3.46\pic18-lt\cxx-framework\src\traditional\stdclib\itoa.asm
                 jANotInf   0x0020be    program     static E:\3.46\pic18-lt\cxx-framework\src\traditional\math\mulFP.asm
                 jANotInf   0x002018    program     static E:\3.46\pic18-lt\cxx-framework\src\traditional\math\divFP.asm
                 jANotInf   0x001ef6    program     static E:\3.46\pic18-lt\cxx-framework\src\traditional\math\addFP.asm
                 jANotNeg   0x001f8a    program     static E:\3.46\pic18-lt\cxx-framework\src\traditional\math\addFP.asm
                jANotZero   0x00202c    program     static E:\3.46\pic18-lt\cxx-framework\src\traditional\math\divFP.asm
              jAandWsetup   0x001f5a    program     static E:\3.46\pic18-lt\cxx-framework\src\traditional\math\addFP.asm
                 jAltBexp   0x001f48    program     static E:\3.46\pic18-lt\cxx-framework\src\traditional\math\addFP.asm
                jBANotInf   0x001eec    program     static E:\3.46\pic18-lt\cxx-framework\src\traditional\math\addFP.asm
                 jBNotInf   0x001f04    program     static E:\3.46\pic18-lt\cxx-framework\src\traditional\math\addFP.asm
              jBothFinite   0x0020cc    program     static E:\3.46\pic18-lt\cxx-framework\src\traditional\math\mulFP.asm
             jBothNotZero   0x0020d8    program     static E:\3.46\pic18-lt\cxx-framework\src\traditional\math\mulFP.asm
            jDifOrPosSign   0x001f18    program     static E:\3.46\pic18-lt\cxx-framework\src\traditional\math\addFP.asm
                     jDo1   0x00244c    program     static E:\3.46\pic18-lt\cxx-framework\src\traditional\stdclib\itoa.asm
                     jDo2   0x002448    program     static E:\3.46\pic18-lt\cxx-framework\src\traditional\stdclib\itoa.asm
                     jDo3   0x002444    program     static E:\3.46\pic18-lt\cxx-framework\src\traditional\stdclib\itoa.asm
                     jDo4   0x002440    program     static E:\3.46\pic18-lt\cxx-framework\src\traditional\stdclib\itoa.asm
                     jDo5   0x00243c    program     static E:\3.46\pic18-lt\cxx-framework\src\traditional\stdclib\itoa.asm
                     jEnd   0x002962    program     static E:\3.46\pic18-lt\cxx-framework\src\traditional\stdclib\slenpgm.asm
                     jEnd   0x00292a    program     static E:\3.46\pic18-lt\cxx-framework\src\traditional\stdclib\strlen.asm
                     jEnd   0x0024e4    program     static E:\3.46\pic18-lt\cxx-framework\src\traditional\stdclib\itobcd.asm
                    jExit   0x0022b8    program     static E:\3.46\pic18-lt\cxx-framework\src\traditional\math\castFP16.asm
               jFinalSign   0x001ff2    program     static E:\3.46\pic18-lt\cxx-framework\src\traditional\math\addFP.asm
                jHaveZero   0x0020d4    program     static E:\3.46\pic18-lt\cxx-framework\src\traditional\math\mulFP.asm
                jI2F16Beg   0x001eb6    program     static E:\3.46\pic18-lt\cxx-framework\src\traditional\math\cast16FP.asm
                    jLoop   0x00294a    program     static E:\3.46\pic18-lt\cxx-framework\src\traditional\stdclib\slenpgm.asm
                    jLoop   0x002054    program     static E:\3.46\pic18-lt\cxx-framework\src\traditional\math\divFP.asm
                    jLoop   0x002920    program     static E:\3.46\pic18-lt\cxx-framework\src\traditional\stdclib\strlen.asm
                    jLoop   0x002298    program     static E:\3.46\pic18-lt\cxx-framework\src\traditional\math\castFP16.asm
                    jLoop   0x0024be    program     static E:\3.46\pic18-lt\cxx-framework\src\traditional\stdclib\itobcd.asm
                jLoopExit   0x0022a8    program     static E:\3.46\pic18-lt\cxx-framework\src\traditional\math\castFP16.asm
                   jMatch   0x002fd8    program     static E:\3.46\pic18-lt\cxx-framework\src\traditional\stdclib\isdigit.asm
                     jMax   0x00226c    program     static E:\3.46\pic18-lt\cxx-framework\src\traditional\math\castFP16.asm
                  jMaxNeg   0x00227a    program     static E:\3.46\pic18-lt\cxx-framework\src\traditional\math\castFP16.asm
                  jMaxPos   0x002270    program     static E:\3.46\pic18-lt\cxx-framework\src\traditional\math\castFP16.asm
                    jNext   0x00207a    program     static E:\3.46\pic18-lt\cxx-framework\src\traditional\math\divFP.asm
                jNoAdjust   0x002078    program     static E:\3.46\pic18-lt\cxx-framework\src\traditional\math\divFP.asm
                 jNoMatch   0x002fda    program     static E:\3.46\pic18-lt\cxx-framework\src\traditional\stdclib\isdigit.asm
             jNotBothZero   0x001f1c    program     static E:\3.46\pic18-lt\cxx-framework\src\traditional\math\addFP.asm
                  jNotInf   0x002288    program     static E:\3.46\pic18-lt\cxx-framework\src\traditional\math\castFP16.asm
                  jPkLoop   0x002300    program     static E:\3.46\pic18-lt\cxx-framework\src\traditional\math\packFP.asm
             jPkRoundDone   0x00234a    program     static E:\3.46\pic18-lt\cxx-framework\src\traditional\math\packFP.asm
               jPkRoundIt   0x002332    program     static E:\3.46\pic18-lt\cxx-framework\src\traditional\math\packFP.asm
             jPkShiftDone   0x00231c    program     static E:\3.46\pic18-lt\cxx-framework\src\traditional\math\packFP.asm
           jReturnPosInf0   0x0022d6    program     static E:\3.46\pic18-lt\cxx-framework\src\traditional\math\packFP.asm
               jShiftDone   0x001fb2    program     static E:\3.46\pic18-lt\cxx-framework\src\traditional\math\addFP.asm
               jShiftLoop   0x001fa4    program     static E:\3.46\pic18-lt\cxx-framework\src\traditional\math\addFP.asm
                jSignDone   0x001fe2    program     static E:\3.46\pic18-lt\cxx-framework\src\traditional\math\addFP.asm
              jSignedZero   0x002022    program     static E:\3.46\pic18-lt\cxx-framework\src\traditional\math\divFP.asm
                jTstLowZ1   0x002490    program     static E:\3.46\pic18-lt\cxx-framework\src\traditional\stdclib\itoa.asm
                jTstSign1   0x0023f2    program     static E:\3.46\pic18-lt\cxx-framework\src\traditional\stdclib\itoa.asm
                  jUnpkA1   0x002374    program     static E:\3.46\pic18-lt\cxx-framework\src\traditional\math\UnpackFP.asm
                  jUnpkA2   0x00238c    program     static E:\3.46\pic18-lt\cxx-framework\src\traditional\math\UnpackFP.asm
                 jUnpkANZ   0x002382    program     static E:\3.46\pic18-lt\cxx-framework\src\traditional\math\UnpackFP.asm
                  jUnpkB1   0x0023a4    program     static E:\3.46\pic18-lt\cxx-framework\src\traditional\math\UnpackFP.asm
                  jUnpkB2   0x0023bc    program     static E:\3.46\pic18-lt\cxx-framework\src\traditional\math\UnpackFP.asm
                 jUnpkBNZ   0x0023b2    program     static E:\3.46\pic18-lt\cxx-framework\src\traditional\math\UnpackFP.asm
                 jUnpkNaN   0x002396    program     static E:\3.46\pic18-lt\cxx-framework\src\traditional\math\UnpackFP.asm
                 jWNotNeg   0x001f9e    program     static E:\3.46\pic18-lt\cxx-framework\src\traditional\math\addFP.asm
                    jZero   0x002282    program     static E:\3.46\pic18-lt\cxx-framework\src\traditional\math\castFP16.asm
               jZero1and2   0x0022da    program     static E:\3.46\pic18-lt\cxx-framework\src\traditional\math\packFP.asm
                     loop   0x002d04    program     static                          
                     loop   0x003048    program     static E:\3.46\pic18-lt\cxx-framework\src\pmc_common\USART\_usartpc.asm
                     loop   0x00302c    program     static                          
                     loop   0x002f96    program     static                          
                   loop_h   0x00300a    program     static E:\3.46\pic18-lt\cxx-framework\src\traditional\proc\p18f452.asm
                   loop_l   0x003014    program     static E:\3.46\pic18-lt\cxx-framework\src\traditional\proc\p18f452.asm
                     main   0x001e9c    program     extern C:\Users\test\Desktop\NewIntegrate\lcdtest3.X\heartrate2.c
               obtainSign   0x00106e    program     extern C:\Users\test\Desktop\NewIntegrate\lcdtest3.X\newtrymain.c
              obtainfract   0x000e54    program     extern C:\Users\test\Desktop\NewIntegrate\lcdtest3.X\newtrymain.c
                obtainint   0x000e1e    program     extern C:\Users\test\Desktop\NewIntegrate\lcdtest3.X\newtrymain.c
             ow_read_byte   0x000d2a    program     extern C:\Users\test\Desktop\NewIntegrate\lcdtest3.X\ow.h
                 ow_reset   0x000c4a    program     extern C:\Users\test\Desktop\NewIntegrate\lcdtest3.X\ow.h
            ow_write_byte   0x000cac    program     extern C:\Users\test\Desktop\NewIntegrate\lcdtest3.X\ow.h
                     putc   0x002730    program     extern E:\3.46\pic18-lt\cxx-framework\src\traditional\stdclib\putc.c
                putrsXLCD   0x00282a    program     extern C:\Users\test\Desktop\NewIntegrate\lcdtest3.X\putrxlcd.c
                 putsXLCD   0x002ba4    program     extern C:\Users\test\Desktop\NewIntegrate\lcdtest3.X\putsxlcd.c
                 readTemp   0x000de2    program     extern C:\Users\test\Desktop\NewIntegrate\lcdtest3.X\newtrymain.c
           runningAverage   0x00135a    program     extern C:\Users\test\Desktop\NewIntegrate\lcdtest3.X\newtrymain.c
                 s_digits   0x00307c    program     static E:\3.46\pic18-lt\cxx-framework\src\traditional\stdclib\vfprintf.c
            s_put_n_chars   0x000028    program     static E:\3.46\pic18-lt\cxx-framework\src\traditional\stdclib\vfprintf.c
                   scroll   0x0016f6    program     extern C:\Users\test\Desktop\NewIntegrate\lcdtest3.X\heartrate2.c
              speakermain   0x002d86    program     extern C:\Users\test\Desktop\NewIntegrate\lcdtest3.X\speakermain.c
                  sprintf   0x0025e6    program     extern E:\3.46\pic18-lt\cxx-framework\src\traditional\stdclib\sprintf.c
                    start   0x0015ae    program     extern C:\Users\test\Desktop\NewIntegrate\lcdtest3.X\heartrate2.c
                   strlen   0x002910    program     extern E:\3.46\pic18-lt\cxx-framework\src\traditional\stdclib\strlen.asm
                strlenpgm   0x00292c    program     extern E:\3.46\pic18-lt\cxx-framework\src\traditional\stdclib\slenpgm.asm
                     test   0x0026ac    program     static                          
                    test1   0x0016b0    program     extern C:\Users\test\Desktop\NewIntegrate\lcdtest3.X\heartrate2.c
                 vfprintf   0x000054    program     extern E:\3.46\pic18-lt\cxx-framework\src\traditional\stdclib\vfprintf.c
               zero_block   0x00300a    program     static E:\3.46\pic18-lt\cxx-framework\src\traditional\proc\p18f452.asm
                   ADCON0   0x000fc2       data     extern E:\3.46\pic18-lt\cxx-framework\src\traditional\proc\p18f452.asm
               ADCON0bits   0x000fc2       data     extern E:\3.46\pic18-lt\cxx-framework\src\traditional\proc\p18f452.asm
                   ADCON1   0x000fc1       data     extern E:\3.46\pic18-lt\cxx-framework\src\traditional\proc\p18f452.asm
               ADCON1bits   0x000fc1       data     extern E:\3.46\pic18-lt\cxx-framework\src\traditional\proc\p18f452.asm
                    ADRES   0x000fc3       data     extern E:\3.46\pic18-lt\cxx-framework\src\traditional\proc\p18f452.asm
                   ADRESH   0x000fc4       data     extern E:\3.46\pic18-lt\cxx-framework\src\traditional\proc\p18f452.asm
                   ADRESL   0x000fc3       data     extern E:\3.46\pic18-lt\cxx-framework\src\traditional\proc\p18f452.asm
                AVG_Fract   0x000099       data     extern C:\Users\test\Desktop\NewIntegrate\lcdtest3.X\newtrymain.c
          AVG_Fract_float   0x0000bb       data     extern C:\Users\test\Desktop\NewIntegrate\lcdtest3.X\newtrymain.c
                   AvgInt   0x000097       data     extern C:\Users\test\Desktop\NewIntegrate\lcdtest3.X\newtrymain.c
                      BSR   0x000fe0       data     extern E:\3.46\pic18-lt\cxx-framework\src\traditional\proc\p18f452.asm
                  CCP1CON   0x000fbd       data     extern E:\3.46\pic18-lt\cxx-framework\src\traditional\proc\p18f452.asm
              CCP1CONbits   0x000fbd       data     extern E:\3.46\pic18-lt\cxx-framework\src\traditional\proc\p18f452.asm
                  CCP2CON   0x000fba       data     extern E:\3.46\pic18-lt\cxx-framework\src\traditional\proc\p18f452.asm
              CCP2CONbits   0x000fba       data     extern E:\3.46\pic18-lt\cxx-framework\src\traditional\proc\p18f452.asm
                    CCPR1   0x000fbe       data     extern E:\3.46\pic18-lt\cxx-framework\src\traditional\proc\p18f452.asm
                   CCPR1H   0x000fbf       data     extern E:\3.46\pic18-lt\cxx-framework\src\traditional\proc\p18f452.asm
                   CCPR1L   0x000fbe       data     extern E:\3.46\pic18-lt\cxx-framework\src\traditional\proc\p18f452.asm
                    CCPR2   0x000fbb       data     extern E:\3.46\pic18-lt\cxx-framework\src\traditional\proc\p18f452.asm
                   CCPR2H   0x000fbc       data     extern E:\3.46\pic18-lt\cxx-framework\src\traditional\proc\p18f452.asm
                   CCPR2L   0x000fbb       data     extern E:\3.46\pic18-lt\cxx-framework\src\traditional\proc\p18f452.asm
                     DDRA   0x000f92       data     extern E:\3.46\pic18-lt\cxx-framework\src\traditional\proc\p18f452.asm
                 DDRAbits   0x000f92       data     extern E:\3.46\pic18-lt\cxx-framework\src\traditional\proc\p18f452.asm
                     DDRB   0x000f93       data     extern E:\3.46\pic18-lt\cxx-framework\src\traditional\proc\p18f452.asm
                 DDRBbits   0x000f93       data     extern E:\3.46\pic18-lt\cxx-framework\src\traditional\proc\p18f452.asm
                     DDRC   0x000f94       data     extern E:\3.46\pic18-lt\cxx-framework\src\traditional\proc\p18f452.asm
                 DDRCbits   0x000f94       data     extern E:\3.46\pic18-lt\cxx-framework\src\traditional\proc\p18f452.asm
                     DDRD   0x000f95       data     extern E:\3.46\pic18-lt\cxx-framework\src\traditional\proc\p18f452.asm
                 DDRDbits   0x000f95       data     extern E:\3.46\pic18-lt\cxx-framework\src\traditional\proc\p18f452.asm
                     DDRE   0x000f96       data     extern E:\3.46\pic18-lt\cxx-framework\src\traditional\proc\p18f452.asm
                 DDREbits   0x000f96       data     extern E:\3.46\pic18-lt\cxx-framework\src\traditional\proc\p18f452.asm
          DEC_div_initial   0x0000a7       data     extern C:\Users\test\Desktop\NewIntegrate\lcdtest3.X\newtrymain.c
              DEC_div_val   0x0000af       data     extern C:\Users\test\Desktop\NewIntegrate\lcdtest3.X\newtrymain.c
      DEC_div_val_integer   0x0000b3       data     extern C:\Users\test\Desktop\NewIntegrate\lcdtest3.X\newtrymain.c
            DelayCounter1   0x000021       data     extern E:\3.46\pic18-lt\cxx-framework\src\traditional\delays\delayd1.asm
            DelayCounter2   0x000020       data     extern E:\3.46\pic18-lt\cxx-framework\src\traditional\delays\delayd2.asm
                    EEADR   0x000fa9       data     extern E:\3.46\pic18-lt\cxx-framework\src\traditional\proc\p18f452.asm
                   EECON1   0x000fa6       data     extern E:\3.46\pic18-lt\cxx-framework\src\traditional\proc\p18f452.asm
               EECON1bits   0x000fa6       data     extern E:\3.46\pic18-lt\cxx-framework\src\traditional\proc\p18f452.asm
                   EECON2   0x000fa7       data     extern E:\3.46\pic18-lt\cxx-framework\src\traditional\proc\p18f452.asm
                   EEDATA   0x000fa8       data     extern E:\3.46\pic18-lt\cxx-framework\src\traditional\proc\p18f452.asm
                     FSR0   0x000fe9       data     extern E:\3.46\pic18-lt\cxx-framework\src\traditional\proc\p18f452.asm
                    FSR0H   0x000fea       data     extern E:\3.46\pic18-lt\cxx-framework\src\traditional\proc\p18f452.asm
                    FSR0L   0x000fe9       data     extern E:\3.46\pic18-lt\cxx-framework\src\traditional\proc\p18f452.asm
                     FSR1   0x000fe1       data     extern E:\3.46\pic18-lt\cxx-framework\src\traditional\proc\p18f452.asm
                    FSR1H   0x000fe2       data     extern E:\3.46\pic18-lt\cxx-framework\src\traditional\proc\p18f452.asm
                    FSR1L   0x000fe1       data     extern E:\3.46\pic18-lt\cxx-framework\src\traditional\proc\p18f452.asm
                     FSR2   0x000fd9       data     extern E:\3.46\pic18-lt\cxx-framework\src\traditional\proc\p18f452.asm
                    FSR2H   0x000fda       data     extern E:\3.46\pic18-lt\cxx-framework\src\traditional\proc\p18f452.asm
                    FSR2L   0x000fd9       data     extern E:\3.46\pic18-lt\cxx-framework\src\traditional\proc\p18f452.asm
                Float_Val   0x000093       data     extern C:\Users\test\Desktop\NewIntegrate\lcdtest3.X\newtrymain.c
                 Hundreds   0x00008b       data     extern C:\Users\test\Desktop\NewIntegrate\lcdtest3.X\newtrymain.c
                    INDF0   0x000fef       data     extern E:\3.46\pic18-lt\cxx-framework\src\traditional\proc\p18f452.asm
                    INDF1   0x000fe7       data     extern E:\3.46\pic18-lt\cxx-framework\src\traditional\proc\p18f452.asm
                    INDF2   0x000fdf       data     extern E:\3.46\pic18-lt\cxx-framework\src\traditional\proc\p18f452.asm
                   INTCON   0x000ff2       data     extern E:\3.46\pic18-lt\cxx-framework\src\traditional\proc\p18f452.asm
                  INTCON1   0x000ff2       data     extern E:\3.46\pic18-lt\cxx-framework\src\traditional\proc\p18f452.asm
              INTCON1bits   0x000ff2       data     extern E:\3.46\pic18-lt\cxx-framework\src\traditional\proc\p18f452.asm
                  INTCON2   0x000ff1       data     extern E:\3.46\pic18-lt\cxx-framework\src\traditional\proc\p18f452.asm
              INTCON2bits   0x000ff1       data     extern E:\3.46\pic18-lt\cxx-framework\src\traditional\proc\p18f452.asm
                  INTCON3   0x000ff0       data     extern E:\3.46\pic18-lt\cxx-framework\src\traditional\proc\p18f452.asm
              INTCON3bits   0x000ff0       data     extern E:\3.46\pic18-lt\cxx-framework\src\traditional\proc\p18f452.asm
               INTCONbits   0x000ff2       data     extern E:\3.46\pic18-lt\cxx-framework\src\traditional\proc\p18f452.asm
          INT_div_initial   0x0000ab       data     extern C:\Users\test\Desktop\NewIntegrate\lcdtest3.X\newtrymain.c
           INT_div_to_add   0x0000b7       data     extern C:\Users\test\Desktop\NewIntegrate\lcdtest3.X\newtrymain.c
                  INT_var   0x0000b5       data     extern C:\Users\test\Desktop\NewIntegrate\lcdtest3.X\newtrymain.c
                     IPR1   0x000f9f       data     extern E:\3.46\pic18-lt\cxx-framework\src\traditional\proc\p18f452.asm
                 IPR1bits   0x000f9f       data     extern E:\3.46\pic18-lt\cxx-framework\src\traditional\proc\p18f452.asm
                     IPR2   0x000fa2       data     extern E:\3.46\pic18-lt\cxx-framework\src\traditional\proc\p18f452.asm
                 IPR2bits   0x000fa2       data     extern E:\3.46\pic18-lt\cxx-framework\src\traditional\proc\p18f452.asm
                      Key   0x0001c0       data     extern C:\Users\test\Desktop\NewIntegrate\lcdtest3.X\heartrate2.c
                   Key100   0x0001ce       data     extern C:\Users\test\Desktop\NewIntegrate\lcdtest3.X\heartrate2.c
                   Keygen   0x0001c2       data     extern C:\Users\test\Desktop\NewIntegrate\lcdtest3.X\heartrate2.c
                     LATA   0x000f89       data     extern E:\3.46\pic18-lt\cxx-framework\src\traditional\proc\p18f452.asm
                 LATAbits   0x000f89       data     extern E:\3.46\pic18-lt\cxx-framework\src\traditional\proc\p18f452.asm
                     LATB   0x000f8a       data     extern E:\3.46\pic18-lt\cxx-framework\src\traditional\proc\p18f452.asm
                 LATBbits   0x000f8a       data     extern E:\3.46\pic18-lt\cxx-framework\src\traditional\proc\p18f452.asm
                     LATC   0x000f8b       data     extern E:\3.46\pic18-lt\cxx-framework\src\traditional\proc\p18f452.asm
                 LATCbits   0x000f8b       data     extern E:\3.46\pic18-lt\cxx-framework\src\traditional\proc\p18f452.asm
                     LATD   0x000f8c       data     extern E:\3.46\pic18-lt\cxx-framework\src\traditional\proc\p18f452.asm
                 LATDbits   0x000f8c       data     extern E:\3.46\pic18-lt\cxx-framework\src\traditional\proc\p18f452.asm
                     LATE   0x000f8d       data     extern E:\3.46\pic18-lt\cxx-framework\src\traditional\proc\p18f452.asm
                 LATEbits   0x000f8d       data     extern E:\3.46\pic18-lt\cxx-framework\src\traditional\proc\p18f452.asm
                   LVDCON   0x000fd2       data     extern E:\3.46\pic18-lt\cxx-framework\src\traditional\proc\p18f452.asm
               LVDCONbits   0x000fd2       data     extern E:\3.46\pic18-lt\cxx-framework\src\traditional\proc\p18f452.asm
                   OSCCON   0x000fd3       data     extern E:\3.46\pic18-lt\cxx-framework\src\traditional\proc\p18f452.asm
               OSCCONbits   0x000fd3       data     extern E:\3.46\pic18-lt\cxx-framework\src\traditional\proc\p18f452.asm
                     Ones   0x00008f       data     extern C:\Users\test\Desktop\NewIntegrate\lcdtest3.X\newtrymain.c
                       PC   0x000ff9       data     extern E:\3.46\pic18-lt\cxx-framework\src\traditional\proc\p18f452.asm
                      PCL   0x000ff9       data     extern E:\3.46\pic18-lt\cxx-framework\src\traditional\proc\p18f452.asm
                   PCLATH   0x000ffa       data     extern E:\3.46\pic18-lt\cxx-framework\src\traditional\proc\p18f452.asm
                   PCLATU   0x000ffb       data     extern E:\3.46\pic18-lt\cxx-framework\src\traditional\proc\p18f452.asm
                     PIE1   0x000f9d       data     extern E:\3.46\pic18-lt\cxx-framework\src\traditional\proc\p18f452.asm
                 PIE1bits   0x000f9d       data     extern E:\3.46\pic18-lt\cxx-framework\src\traditional\proc\p18f452.asm
                     PIE2   0x000fa0       data     extern E:\3.46\pic18-lt\cxx-framework\src\traditional\proc\p18f452.asm
                 PIE2bits   0x000fa0       data     extern E:\3.46\pic18-lt\cxx-framework\src\traditional\proc\p18f452.asm
                     PIR1   0x000f9e       data     extern E:\3.46\pic18-lt\cxx-framework\src\traditional\proc\p18f452.asm
                 PIR1bits   0x000f9e       data     extern E:\3.46\pic18-lt\cxx-framework\src\traditional\proc\p18f452.asm
                     PIR2   0x000fa1       data     extern E:\3.46\pic18-lt\cxx-framework\src\traditional\proc\p18f452.asm
                 PIR2bits   0x000fa1       data     extern E:\3.46\pic18-lt\cxx-framework\src\traditional\proc\p18f452.asm
                   PLUSW0   0x000feb       data     extern E:\3.46\pic18-lt\cxx-framework\src\traditional\proc\p18f452.asm
                   PLUSW1   0x000fe3       data     extern E:\3.46\pic18-lt\cxx-framework\src\traditional\proc\p18f452.asm
                   PLUSW2   0x000fdb       data     extern E:\3.46\pic18-lt\cxx-framework\src\traditional\proc\p18f452.asm
                    PORTA   0x000f80       data     extern E:\3.46\pic18-lt\cxx-framework\src\traditional\proc\p18f452.asm
                PORTAbits   0x000f80       data     extern E:\3.46\pic18-lt\cxx-framework\src\traditional\proc\p18f452.asm
                    PORTB   0x000f81       data     extern E:\3.46\pic18-lt\cxx-framework\src\traditional\proc\p18f452.asm
                PORTBbits   0x000f81       data     extern E:\3.46\pic18-lt\cxx-framework\src\traditional\proc\p18f452.asm
                    PORTC   0x000f82       data     extern E:\3.46\pic18-lt\cxx-framework\src\traditional\proc\p18f452.asm
                PORTCbits   0x000f82       data     extern E:\3.46\pic18-lt\cxx-framework\src\traditional\proc\p18f452.asm
                    PORTD   0x000f83       data     extern E:\3.46\pic18-lt\cxx-framework\src\traditional\proc\p18f452.asm
                PORTDbits   0x000f83       data     extern E:\3.46\pic18-lt\cxx-framework\src\traditional\proc\p18f452.asm
                    PORTE   0x000f84       data     extern E:\3.46\pic18-lt\cxx-framework\src\traditional\proc\p18f452.asm
                PORTEbits   0x000f84       data     extern E:\3.46\pic18-lt\cxx-framework\src\traditional\proc\p18f452.asm
                 POSTDEC0   0x000fed       data     extern E:\3.46\pic18-lt\cxx-framework\src\traditional\proc\p18f452.asm
                 POSTDEC1   0x000fe5       data     extern E:\3.46\pic18-lt\cxx-framework\src\traditional\proc\p18f452.asm
                 POSTDEC2   0x000fdd       data     extern E:\3.46\pic18-lt\cxx-framework\src\traditional\proc\p18f452.asm
                 POSTINC0   0x000fee       data     extern E:\3.46\pic18-lt\cxx-framework\src\traditional\proc\p18f452.asm
                 POSTINC1   0x000fe6       data     extern E:\3.46\pic18-lt\cxx-framework\src\traditional\proc\p18f452.asm
                 POSTINC2   0x000fde       data     extern E:\3.46\pic18-lt\cxx-framework\src\traditional\proc\p18f452.asm
                      PR2   0x000fcb       data     extern E:\3.46\pic18-lt\cxx-framework\src\traditional\proc\p18f452.asm
                  PREINC0   0x000fec       data     extern E:\3.46\pic18-lt\cxx-framework\src\traditional\proc\p18f452.asm
                  PREINC1   0x000fe4       data     extern E:\3.46\pic18-lt\cxx-framework\src\traditional\proc\p18f452.asm
                  PREINC2   0x000fdc       data     extern E:\3.46\pic18-lt\cxx-framework\src\traditional\proc\p18f452.asm
                     PROD   0x000ff3       data     extern E:\3.46\pic18-lt\cxx-framework\src\traditional\proc\p18f452.asm
                    PRODH   0x000ff4       data     extern E:\3.46\pic18-lt\cxx-framework\src\traditional\proc\p18f452.asm
                    PRODL   0x000ff3       data     extern E:\3.46\pic18-lt\cxx-framework\src\traditional\proc\p18f452.asm
                     RCON   0x000fd0       data     extern E:\3.46\pic18-lt\cxx-framework\src\traditional\proc\p18f452.asm
                 RCONbits   0x000fd0       data     extern E:\3.46\pic18-lt\cxx-framework\src\traditional\proc\p18f452.asm
                    RCREG   0x000fae       data     extern E:\3.46\pic18-lt\cxx-framework\src\traditional\proc\p18f452.asm
                    RCSTA   0x000fab       data     extern E:\3.46\pic18-lt\cxx-framework\src\traditional\proc\p18f452.asm
                RCSTAbits   0x000fab       data     extern E:\3.46\pic18-lt\cxx-framework\src\traditional\proc\p18f452.asm
                     SIGN   0x000000       data     extern E:\3.46\pic18-lt\cxx-framework\src\traditional\math\cmath18.asm
                    SPBRG   0x000faf       data     extern E:\3.46\pic18-lt\cxx-framework\src\traditional\proc\p18f452.asm
                   SSPADD   0x000fc8       data     extern E:\3.46\pic18-lt\cxx-framework\src\traditional\proc\p18f452.asm
                   SSPBUF   0x000fc9       data     extern E:\3.46\pic18-lt\cxx-framework\src\traditional\proc\p18f452.asm
                  SSPCON1   0x000fc6       data     extern E:\3.46\pic18-lt\cxx-framework\src\traditional\proc\p18f452.asm
              SSPCON1bits   0x000fc6       data     extern E:\3.46\pic18-lt\cxx-framework\src\traditional\proc\p18f452.asm
                  SSPCON2   0x000fc5       data     extern E:\3.46\pic18-lt\cxx-framework\src\traditional\proc\p18f452.asm
              SSPCON2bits   0x000fc5       data     extern E:\3.46\pic18-lt\cxx-framework\src\traditional\proc\p18f452.asm
                  SSPSTAT   0x000fc7       data     extern E:\3.46\pic18-lt\cxx-framework\src\traditional\proc\p18f452.asm
              SSPSTATbits   0x000fc7       data     extern E:\3.46\pic18-lt\cxx-framework\src\traditional\proc\p18f452.asm
                   STATUS   0x000fd8       data     extern E:\3.46\pic18-lt\cxx-framework\src\traditional\proc\p18f452.asm
               STATUSbits   0x000fd8       data     extern E:\3.46\pic18-lt\cxx-framework\src\traditional\proc\p18f452.asm
                   STKPTR   0x000ffc       data     extern E:\3.46\pic18-lt\cxx-framework\src\traditional\proc\p18f452.asm
               STKPTRbits   0x000ffc       data     extern E:\3.46\pic18-lt\cxx-framework\src\traditional\proc\p18f452.asm
                     Sign   0x000089       data     extern C:\Users\test\Desktop\NewIntegrate\lcdtest3.X\newtrymain.c
                 SumFract   0x00009d       data     extern C:\Users\test\Desktop\NewIntegrate\lcdtest3.X\newtrymain.c
                   SumInt   0x00009b       data     extern C:\Users\test\Desktop\NewIntegrate\lcdtest3.X\newtrymain.c
                    T0CON   0x000fd5       data     extern E:\3.46\pic18-lt\cxx-framework\src\traditional\proc\p18f452.asm
                T0CONbits   0x000fd5       data     extern E:\3.46\pic18-lt\cxx-framework\src\traditional\proc\p18f452.asm
                    T1CON   0x000fcd       data     extern E:\3.46\pic18-lt\cxx-framework\src\traditional\proc\p18f452.asm
                T1CONbits   0x000fcd       data     extern E:\3.46\pic18-lt\cxx-framework\src\traditional\proc\p18f452.asm
                    T2CON   0x000fca       data     extern E:\3.46\pic18-lt\cxx-framework\src\traditional\proc\p18f452.asm
                T2CONbits   0x000fca       data     extern E:\3.46\pic18-lt\cxx-framework\src\traditional\proc\p18f452.asm
                    T3CON   0x000fb1       data     extern E:\3.46\pic18-lt\cxx-framework\src\traditional\proc\p18f452.asm
                T3CONbits   0x000fb1       data     extern E:\3.46\pic18-lt\cxx-framework\src\traditional\proc\p18f452.asm
                   TABLAT   0x000ff5       data     extern E:\3.46\pic18-lt\cxx-framework\src\traditional\proc\p18f452.asm
                   TBLPTR   0x000ff6       data     extern E:\3.46\pic18-lt\cxx-framework\src\traditional\proc\p18f452.asm
                  TBLPTRH   0x000ff7       data     extern E:\3.46\pic18-lt\cxx-framework\src\traditional\proc\p18f452.asm
                  TBLPTRL   0x000ff6       data     extern E:\3.46\pic18-lt\cxx-framework\src\traditional\proc\p18f452.asm
                  TBLPTRU   0x000ff8       data     extern E:\3.46\pic18-lt\cxx-framework\src\traditional\proc\p18f452.asm
                    TMR0H   0x000fd7       data     extern E:\3.46\pic18-lt\cxx-framework\src\traditional\proc\p18f452.asm
                    TMR0L   0x000fd6       data     extern E:\3.46\pic18-lt\cxx-framework\src\traditional\proc\p18f452.asm
                    TMR1H   0x000fcf       data     extern E:\3.46\pic18-lt\cxx-framework\src\traditional\proc\p18f452.asm
                    TMR1L   0x000fce       data     extern E:\3.46\pic18-lt\cxx-framework\src\traditional\proc\p18f452.asm
                     TMR2   0x000fcc       data     extern E:\3.46\pic18-lt\cxx-framework\src\traditional\proc\p18f452.asm
                    TMR3H   0x000fb3       data     extern E:\3.46\pic18-lt\cxx-framework\src\traditional\proc\p18f452.asm
                    TMR3L   0x000fb2       data     extern E:\3.46\pic18-lt\cxx-framework\src\traditional\proc\p18f452.asm
                      TOS   0x000ffd       data     extern E:\3.46\pic18-lt\cxx-framework\src\traditional\proc\p18f452.asm
                     TOSH   0x000ffe       data     extern E:\3.46\pic18-lt\cxx-framework\src\traditional\proc\p18f452.asm
                     TOSL   0x000ffd       data     extern E:\3.46\pic18-lt\cxx-framework\src\traditional\proc\p18f452.asm
                     TOSU   0x000fff       data     extern E:\3.46\pic18-lt\cxx-framework\src\traditional\proc\p18f452.asm
                    TRISA   0x000f92       data     extern E:\3.46\pic18-lt\cxx-framework\src\traditional\proc\p18f452.asm
                TRISAbits   0x000f92       data     extern E:\3.46\pic18-lt\cxx-framework\src\traditional\proc\p18f452.asm
                    TRISB   0x000f93       data     extern E:\3.46\pic18-lt\cxx-framework\src\traditional\proc\p18f452.asm
                TRISBbits   0x000f93       data     extern E:\3.46\pic18-lt\cxx-framework\src\traditional\proc\p18f452.asm
                    TRISC   0x000f94       data     extern E:\3.46\pic18-lt\cxx-framework\src\traditional\proc\p18f452.asm
                TRISCbits   0x000f94       data     extern E:\3.46\pic18-lt\cxx-framework\src\traditional\proc\p18f452.asm
                    TRISD   0x000f95       data     extern E:\3.46\pic18-lt\cxx-framework\src\traditional\proc\p18f452.asm
                TRISDbits   0x000f95       data     extern E:\3.46\pic18-lt\cxx-framework\src\traditional\proc\p18f452.asm
                    TRISE   0x000f96       data     extern E:\3.46\pic18-lt\cxx-framework\src\traditional\proc\p18f452.asm
                TRISEbits   0x000f96       data     extern E:\3.46\pic18-lt\cxx-framework\src\traditional\proc\p18f452.asm
                    TXREG   0x000fad       data     extern E:\3.46\pic18-lt\cxx-framework\src\traditional\proc\p18f452.asm
                    TXSTA   0x000fac       data     extern E:\3.46\pic18-lt\cxx-framework\src\traditional\proc\p18f452.asm
                TXSTAbits   0x000fac       data     extern E:\3.46\pic18-lt\cxx-framework\src\traditional\proc\p18f452.asm
                     Tens   0x00008d       data     extern C:\Users\test\Desktop\NewIntegrate\lcdtest3.X\newtrymain.c
                        W   0x000fe8       data     extern E:\3.46\pic18-lt\cxx-framework\src\traditional\proc\p18f452.asm
                   WDTCON   0x000fd1       data     extern E:\3.46\pic18-lt\cxx-framework\src\traditional\proc\p18f452.asm
               WDTCONbits   0x000fd1       data     extern E:\3.46\pic18-lt\cxx-framework\src\traditional\proc\p18f452.asm
                     WREG   0x000fe8       data     extern E:\3.46\pic18-lt\cxx-framework\src\traditional\proc\p18f452.asm
                 __AARGB0   0x000009       data     extern E:\3.46\pic18-lt\cxx-framework\src\traditional\math\aarg.asm
                 __AARGB1   0x000008       data     extern E:\3.46\pic18-lt\cxx-framework\src\traditional\math\aarg.asm
                 __AARGB2   0x000007       data     extern E:\3.46\pic18-lt\cxx-framework\src\traditional\math\aarg.asm
                 __AARGB3   0x000006       data     extern E:\3.46\pic18-lt\cxx-framework\src\traditional\math\aarg.asm
                 __AARGB4   0x000005       data     extern E:\3.46\pic18-lt\cxx-framework\src\traditional\math\aarg.asm
                 __AARGB5   0x000004       data     extern E:\3.46\pic18-lt\cxx-framework\src\traditional\math\aarg.asm
                 __AARGB6   0x000003       data     extern E:\3.46\pic18-lt\cxx-framework\src\traditional\math\aarg.asm
                 __AARGB7   0x000002       data     extern E:\3.46\pic18-lt\cxx-framework\src\traditional\math\aarg.asm
                   __AEXP   0x00000a       data     extern E:\3.46\pic18-lt\cxx-framework\src\traditional\math\aarg.asm
                 __BARGB0   0x00000e       data     extern E:\3.46\pic18-lt\cxx-framework\src\traditional\math\barg.asm
                 __BARGB1   0x00000d       data     extern E:\3.46\pic18-lt\cxx-framework\src\traditional\math\barg.asm
                 __BARGB2   0x00000c       data     extern E:\3.46\pic18-lt\cxx-framework\src\traditional\math\barg.asm
                 __BARGB3   0x00000b       data     extern E:\3.46\pic18-lt\cxx-framework\src\traditional\math\barg.asm
                   __BEXP   0x00000f       data     extern E:\3.46\pic18-lt\cxx-framework\src\traditional\math\barg.asm
                __FPFLAGS   0x000001       data     extern E:\3.46\pic18-lt\cxx-framework\src\traditional\math\cmath18.asm
            __FPFLAGSbits   0x000001       data     extern E:\3.46\pic18-lt\cxx-framework\src\traditional\math\cmath18.asm
                  __REMB0   0x000005       data     extern E:\3.46\pic18-lt\cxx-framework\src\traditional\math\aarg.asm
                  __REMB1   0x000004       data     extern E:\3.46\pic18-lt\cxx-framework\src\traditional\math\aarg.asm
                  __REMB2   0x000003       data     extern E:\3.46\pic18-lt\cxx-framework\src\traditional\math\aarg.asm
                  __REMB3   0x000002       data     extern E:\3.46\pic18-lt\cxx-framework\src\traditional\math\aarg.asm
                   __TEMP   0x000013       data     extern E:\3.46\pic18-lt\cxx-framework\src\traditional\math\temparg.asm
                 __TEMPB0   0x000013       data     extern E:\3.46\pic18-lt\cxx-framework\src\traditional\math\temparg.asm
                 __TEMPB1   0x000012       data     extern E:\3.46\pic18-lt\cxx-framework\src\traditional\math\temparg.asm
                 __TEMPB2   0x000011       data     extern E:\3.46\pic18-lt\cxx-framework\src\traditional\math\temparg.asm
                 __TEMPB3   0x000010       data     extern E:\3.46\pic18-lt\cxx-framework\src\traditional\math\temparg.asm
                  __tmp_0   0x000014       data     static E:\3.46\pic18-lt\cxx-framework\src\traditional\stdclib\sprintf.c
                  __tmp_0   0x000014       data     static E:\3.46\pic18-lt\cxx-framework\src\traditional\stdclib\vfprintf.c
                  __tmp_0   0x000014       data     static E:\3.46\pic18-lt\cxx-framework\src\traditional\stdclib\putc.c
                  __tmp_0   0x000014       data     static E:\3.46\pic18-lt\cxx-framework\src\pmc_common\PWM\pw2setdc.c
                  __tmp_0   0x000014       data     static E:\3.46\pic18-lt\cxx-framework\src\pmc_common\Timers\t0read.c
                  __tmp_0   0x000014       data     static E:\3.46\pic18-lt\cxx-framework\src\pmc_common\ADC\adcread.c
                  __tmp_0   0x000014       data     static E:\3.46\pic18-lt\cxx-framework\src\pmc_common\ADC\adcopen.c
                  __tmp_0   0x000014       data     static C:\Users\test\Desktop\NewIntegrate\lcdtest3.X\newtrymain.c
                  __tmp_0   0x000014       data     static C:\Users\test\Desktop\NewIntegrate\lcdtest3.X\heartrate2.c
                  __tmp_1   0x00001e       data     static C:\Users\test\Desktop\NewIntegrate\lcdtest3.X\heartrate2.c
                   acount   0x0001d0       data     extern C:\Users\test\Desktop\NewIntegrate\lcdtest3.X\heartrate2.c
             approx_value   0x0000a3       data     extern C:\Users\test\Desktop\NewIntegrate\lcdtest3.X\newtrymain.c
                    btime   0x00013e       data     extern C:\Users\test\Desktop\NewIntegrate\lcdtest3.X\heartrate2.c
                        c   0x0001ee       data     extern C:\Users\test\Desktop\NewIntegrate\lcdtest3.X\heartrate2.c
                  counter   0x000091       data     extern C:\Users\test\Desktop\NewIntegrate\lcdtest3.X\newtrymain.c
                 counter2   0x0000bf       data     extern C:\Users\test\Desktop\NewIntegrate\lcdtest3.X\newtrymain.c
                    ctime   0x000166       data     extern C:\Users\test\Desktop\NewIntegrate\lcdtest3.X\heartrate2.c
                curr_byte   0x0001f7       data     static E:\3.46\pic18-lt\cxx-framework\src\traditional\startup\c018i.c
               curr_entry   0x0001f9       data     static E:\3.46\pic18-lt\cxx-framework\src\traditional\startup\c018i.c
                 data_ptr   0x0001fb       data     static E:\3.46\pic18-lt\cxx-framework\src\traditional\startup\c018i.c
                 discount   0x0001f2       data     extern C:\Users\test\Desktop\NewIntegrate\lcdtest3.X\heartrate2.c
                   gcount   0x0001ec       data     extern C:\Users\test\Desktop\NewIntegrate\lcdtest3.X\heartrate2.c
                      h60   0x000100       data     extern C:\Users\test\Desktop\NewIntegrate\lcdtest3.X\heartrate2.c
                   hcount   0x0001f0       data     extern C:\Users\test\Desktop\NewIntegrate\lcdtest3.X\heartrate2.c
                     hdis   0x000102       data     extern C:\Users\test\Desktop\NewIntegrate\lcdtest3.X\heartrate2.c
                   hrate1   0x0001a8       data     extern C:\Users\test\Desktop\NewIntegrate\lcdtest3.X\heartrate2.c
                   hrate2   0x0001ac       data     extern C:\Users\test\Desktop\NewIntegrate\lcdtest3.X\heartrate2.c
                     hrv1   0x00018e       data     extern C:\Users\test\Desktop\NewIntegrate\lcdtest3.X\heartrate2.c
                     hrv2   0x000190       data     extern C:\Users\test\Desktop\NewIntegrate\lcdtest3.X\heartrate2.c
                     hrv3   0x000194       data     extern C:\Users\test\Desktop\NewIntegrate\lcdtest3.X\heartrate2.c
                    htime   0x000116       data     extern C:\Users\test\Desktop\NewIntegrate\lcdtest3.X\heartrate2.c
                        i   0x0001e8       data     extern C:\Users\test\Desktop\NewIntegrate\lcdtest3.X\heartrate2.c
                     prom   0x0001f4       data     static E:\3.46\pic18-lt\cxx-framework\src\traditional\startup\c018i.c
         running_AvgFract   0x0000a1       data     extern C:\Users\test\Desktop\NewIntegrate\lcdtest3.X\newtrymain.c
           running_AvgInt   0x00009f       data     extern C:\Users\test\Desktop\NewIntegrate\lcdtest3.X\newtrymain.c
                   tcount   0x0001ea       data     extern C:\Users\test\Desktop\NewIntegrate\lcdtest3.X\heartrate2.c
                  tempDEC   0x000087       data     extern C:\Users\test\Desktop\NewIntegrate\lcdtest3.X\newtrymain.c
                 tempHIGH   0x000083       data     extern C:\Users\test\Desktop\NewIntegrate\lcdtest3.X\newtrymain.c
                  tempINT   0x000085       data     extern C:\Users\test\Desktop\NewIntegrate\lcdtest3.X\newtrymain.c
                  tempLOW   0x000081       data     extern C:\Users\test\Desktop\NewIntegrate\lcdtest3.X\newtrymain.c
                  tempLSB   0x0001d2       data     extern C:\Users\test\Desktop\NewIntegrate\lcdtest3.X\newtrymain.c
                  tempMSB   0x0001d3       data     extern C:\Users\test\Desktop\NewIntegrate\lcdtest3.X\newtrymain.c
            temp_SumFract   0x0000a5       data     extern C:\Users\test\Desktop\NewIntegrate\lcdtest3.X\newtrymain.c
              temp_degree   0x000080       data     extern C:\Users\test\Desktop\NewIntegrate\lcdtest3.X\newtrymain.c
                tempprint   0x0001d4       data     extern C:\Users\test\Desktop\NewIntegrate\lcdtest3.X\newtrymain.c
                     test   0x0000c1       data     extern C:\Users\test\Desktop\NewIntegrate\lcdtest3.X\newtrymain.c



                              Symbols - Sorted by Address
                     Name    Address   Location    Storage File                     
                ---------  ---------  ---------  --------- ---------                
                   _entry   0x000000    program     extern E:\3.46\pic18-lt\cxx-framework\src\traditional\startup\c018i.c
       ___return_lbl00000   0x000004    program     static                          
               _user_putc   0x000006    program     extern E:\3.46\pic18-lt\cxx-framework\src\traditional\stdclib\_user_putc.c
    high_interrupt_vector   0x000008    program     extern C:\Users\test\Desktop\NewIntegrate\lcdtest3.X\heartrate2.c
       ___return_lbl00088   0x00000c    program     static                          
            s_put_n_chars   0x000028    program     static E:\3.46\pic18-lt\cxx-framework\src\traditional\stdclib\vfprintf.c
                 vfprintf   0x000054    program     extern E:\3.46\pic18-lt\cxx-framework\src\traditional\stdclib\vfprintf.c
              __tmplbl_85   0x00007e    program     static                          
              __tmplbl_44   0x00092c    program     static                          
              __tmplbl_43   0x000946    program     static                          
                   __pa_0   0x000968    program     static E:\3.46\pic18-lt\cxx-framework\src\traditional\stdclib\vfprintf.c
                   __pa_1   0x000970    program     static E:\3.46\pic18-lt\cxx-framework\src\traditional\stdclib\vfprintf.c
                   __pa_2   0x00097a    program     static E:\3.46\pic18-lt\cxx-framework\src\traditional\stdclib\vfprintf.c
                   __pa_3   0x000984    program     static E:\3.46\pic18-lt\cxx-framework\src\traditional\stdclib\vfprintf.c
                   __pa_4   0x00099c    program     static E:\3.46\pic18-lt\cxx-framework\src\traditional\stdclib\vfprintf.c
                   __pa_5   0x0009b0    program     static E:\3.46\pic18-lt\cxx-framework\src\traditional\stdclib\vfprintf.c
                   __pa_6   0x0009cc    program     static E:\3.46\pic18-lt\cxx-framework\src\traditional\stdclib\vfprintf.c
                   __pa_7   0x0009d6    program     static E:\3.46\pic18-lt\cxx-framework\src\traditional\stdclib\vfprintf.c
                   __pa_8   0x0009e2    program     static E:\3.46\pic18-lt\cxx-framework\src\traditional\stdclib\vfprintf.c
                   __pa_9   0x000a04    program     static E:\3.46\pic18-lt\cxx-framework\src\traditional\stdclib\vfprintf.c
                  __pa_10   0x000a24    program     static E:\3.46\pic18-lt\cxx-framework\src\traditional\stdclib\vfprintf.c
                  __pa_11   0x000a32    program     static E:\3.46\pic18-lt\cxx-framework\src\traditional\stdclib\vfprintf.c
                  __pa_12   0x000a48    program     static E:\3.46\pic18-lt\cxx-framework\src\traditional\stdclib\vfprintf.c
                  __pa_13   0x000a62    program     static E:\3.46\pic18-lt\cxx-framework\src\traditional\stdclib\vfprintf.c
                  __pa_14   0x000a7a    program     static E:\3.46\pic18-lt\cxx-framework\src\traditional\stdclib\vfprintf.c
                  __pa_15   0x000a8a    program     static E:\3.46\pic18-lt\cxx-framework\src\traditional\stdclib\vfprintf.c
                  __pa_16   0x000aa0    program     static E:\3.46\pic18-lt\cxx-framework\src\traditional\stdclib\vfprintf.c
                  __pa_17   0x000ab2    program     static E:\3.46\pic18-lt\cxx-framework\src\traditional\stdclib\vfprintf.c
                  __pa_18   0x000ac4    program     static E:\3.46\pic18-lt\cxx-framework\src\traditional\stdclib\vfprintf.c
                  __pa_19   0x000ace    program     static E:\3.46\pic18-lt\cxx-framework\src\traditional\stdclib\vfprintf.c
                  __pa_20   0x000ade    program     static E:\3.46\pic18-lt\cxx-framework\src\traditional\stdclib\vfprintf.c
                  __pa_21   0x000aee    program     static E:\3.46\pic18-lt\cxx-framework\src\traditional\stdclib\vfprintf.c
                  __pa_22   0x000afe    program     static E:\3.46\pic18-lt\cxx-framework\src\traditional\stdclib\vfprintf.c
              __tmplbl_42   0x000afe    program     static                          
                  __pa_23   0x000b0a    program     static E:\3.46\pic18-lt\cxx-framework\src\traditional\stdclib\vfprintf.c
                  __pa_24   0x000b18    program     static E:\3.46\pic18-lt\cxx-framework\src\traditional\stdclib\vfprintf.c
                  __pa_25   0x000b20    program     static E:\3.46\pic18-lt\cxx-framework\src\traditional\stdclib\vfprintf.c
                  __pa_26   0x000b2a    program     static E:\3.46\pic18-lt\cxx-framework\src\traditional\stdclib\vfprintf.c
                  __pa_27   0x000b34    program     static E:\3.46\pic18-lt\cxx-framework\src\traditional\stdclib\vfprintf.c
                  __pa_28   0x000b3c    program     static E:\3.46\pic18-lt\cxx-framework\src\traditional\stdclib\vfprintf.c
                  __pa_29   0x000b4a    program     static E:\3.46\pic18-lt\cxx-framework\src\traditional\stdclib\vfprintf.c
                  __pa_30   0x000b66    program     static E:\3.46\pic18-lt\cxx-framework\src\traditional\stdclib\vfprintf.c
                  __pa_31   0x000b80    program     static E:\3.46\pic18-lt\cxx-framework\src\traditional\stdclib\vfprintf.c
                  __pa_32   0x000b9a    program     static E:\3.46\pic18-lt\cxx-framework\src\traditional\stdclib\vfprintf.c
                  __pa_33   0x000bb2    program     static E:\3.46\pic18-lt\cxx-framework\src\traditional\stdclib\vfprintf.c
                  __pa_34   0x000bbc    program     static E:\3.46\pic18-lt\cxx-framework\src\traditional\stdclib\vfprintf.c
                  __pa_35   0x000bca    program     static E:\3.46\pic18-lt\cxx-framework\src\traditional\stdclib\vfprintf.c
                  __pa_36   0x000bd2    program     static E:\3.46\pic18-lt\cxx-framework\src\traditional\stdclib\vfprintf.c
                  __pa_37   0x000bdc    program     static E:\3.46\pic18-lt\cxx-framework\src\traditional\stdclib\vfprintf.c
                  __pa_38   0x000bec    program     static E:\3.46\pic18-lt\cxx-framework\src\traditional\stdclib\vfprintf.c
                  __pa_39   0x000bfa    program     static E:\3.46\pic18-lt\cxx-framework\src\traditional\stdclib\vfprintf.c
                  __pa_40   0x000c06    program     static E:\3.46\pic18-lt\cxx-framework\src\traditional\stdclib\vfprintf.c
                  __pa_41   0x000c12    program     static E:\3.46\pic18-lt\cxx-framework\src\traditional\stdclib\vfprintf.c
                  __pa_42   0x000c1a    program     static E:\3.46\pic18-lt\cxx-framework\src\traditional\stdclib\vfprintf.c
                  __pa_43   0x000c24    program     static E:\3.46\pic18-lt\cxx-framework\src\traditional\stdclib\vfprintf.c
                  __pa_44   0x000c2a    program     static E:\3.46\pic18-lt\cxx-framework\src\traditional\stdclib\vfprintf.c
                  __pa_45   0x000c34    program     static E:\3.46\pic18-lt\cxx-framework\src\traditional\stdclib\vfprintf.c
                  __pa_46   0x000c40    program     static E:\3.46\pic18-lt\cxx-framework\src\traditional\stdclib\vfprintf.c
                 ow_reset   0x000c4a    program     extern C:\Users\test\Desktop\NewIntegrate\lcdtest3.X\ow.h
            ow_write_byte   0x000cac    program     extern C:\Users\test\Desktop\NewIntegrate\lcdtest3.X\ow.h
             ow_read_byte   0x000d2a    program     extern C:\Users\test\Desktop\NewIntegrate\lcdtest3.X\ow.h
          ___for_lbl00008   0x000d44    program     static                          
               __tmplbl_1   0x000d58    program     static                          
          ___for_lbl00006   0x000da0    program     static                          
          ___for_lbl00007   0x000da6    program     static                          
       ___return_lbl00005   0x000daa    program     static                          
               configTemp   0x000dba    program     extern C:\Users\test\Desktop\NewIntegrate\lcdtest3.X\newtrymain.c
                 readTemp   0x000de2    program     extern C:\Users\test\Desktop\NewIntegrate\lcdtest3.X\newtrymain.c
                obtainint   0x000e1e    program     extern C:\Users\test\Desktop\NewIntegrate\lcdtest3.X\newtrymain.c
              obtainfract   0x000e54    program     extern C:\Users\test\Desktop\NewIntegrate\lcdtest3.X\newtrymain.c
            approximation   0x000f56    program     extern C:\Users\test\Desktop\NewIntegrate\lcdtest3.X\newtrymain.c
               obtainSign   0x00106e    program     extern C:\Users\test\Desktop\NewIntegrate\lcdtest3.X\newtrymain.c
                 Resettmp   0x001106    program     extern C:\Users\test\Desktop\NewIntegrate\lcdtest3.X\newtrymain.c
                 errorcal   0x001124    program     extern C:\Users\test\Desktop\NewIntegrate\lcdtest3.X\newtrymain.c
           runningAverage   0x00135a    program     extern C:\Users\test\Desktop\NewIntegrate\lcdtest3.X\newtrymain.c
                 fulltemp   0x00155e    program     extern C:\Users\test\Desktop\NewIntegrate\lcdtest3.X\newtrymain.c
            configuretmr0   0x001584    program     extern C:\Users\test\Desktop\NewIntegrate\lcdtest3.X\heartrate2.c
            configuretmr1   0x0015a2    program     extern C:\Users\test\Desktop\NewIntegrate\lcdtest3.X\heartrate2.c
                    start   0x0015ae    program     extern C:\Users\test\Desktop\NewIntegrate\lcdtest3.X\heartrate2.c
                    test1   0x0016b0    program     extern C:\Users\test\Desktop\NewIntegrate\lcdtest3.X\heartrate2.c
                   scroll   0x0016f6    program     extern C:\Users\test\Desktop\NewIntegrate\lcdtest3.X\heartrate2.c
            DelayFor18TCY   0x001918    program     extern C:\Users\test\Desktop\NewIntegrate\lcdtest3.X\heartrate2.c
       ___return_lbl00063   0x00193c    program     static                          
           finddifference   0x00193e    program     extern C:\Users\test\Desktop\NewIntegrate\lcdtest3.X\heartrate2.c
             DelayPORXLCD   0x0019dc    program     extern C:\Users\test\Desktop\NewIntegrate\lcdtest3.X\heartrate2.c
                DelayXLCD   0x0019f2    program     extern C:\Users\test\Desktop\NewIntegrate\lcdtest3.X\heartrate2.c
                   ADCcon   0x0019fe    program     extern C:\Users\test\Desktop\NewIntegrate\lcdtest3.X\heartrate2.c
                   KeySel   0x001a44    program     extern C:\Users\test\Desktop\NewIntegrate\lcdtest3.X\heartrate2.c
                      hrv   0x001a96    program     extern C:\Users\test\Desktop\NewIntegrate\lcdtest3.X\heartrate2.c
           heartbeatstart   0x001bfe    program     extern C:\Users\test\Desktop\NewIntegrate\lcdtest3.X\heartrate2.c
            heartbeatstop   0x001c0c    program     extern C:\Users\test\Desktop\NewIntegrate\lcdtest3.X\heartrate2.c
                    hrate   0x001c86    program     extern C:\Users\test\Desktop\NewIntegrate\lcdtest3.X\heartrate2.c
                 high_ISR   0x001cc4    program     extern C:\Users\test\Desktop\NewIntegrate\lcdtest3.X\heartrate2.c
                     main   0x001e9c    program     extern C:\Users\test\Desktop\NewIntegrate\lcdtest3.X\heartrate2.c
                 FLO1632U   0x001ea2    program     extern E:\3.46\pic18-lt\cxx-framework\src\traditional\math\cast16FP.asm
                 FLO1632S   0x001ea6    program     extern E:\3.46\pic18-lt\cxx-framework\src\traditional\math\cast16FP.asm
                jI2F16Beg   0x001eb6    program     static E:\3.46\pic18-lt\cxx-framework\src\traditional\math\cast16FP.asm
                    FPS32   0x001ecc    program     extern E:\3.46\pic18-lt\cxx-framework\src\traditional\math\addFP.asm
                    FPA32   0x001ece    program     extern E:\3.46\pic18-lt\cxx-framework\src\traditional\math\addFP.asm
                jBANotInf   0x001eec    program     static E:\3.46\pic18-lt\cxx-framework\src\traditional\math\addFP.asm
                 jANotInf   0x001ef6    program     static E:\3.46\pic18-lt\cxx-framework\src\traditional\math\addFP.asm
                 jBNotInf   0x001f04    program     static E:\3.46\pic18-lt\cxx-framework\src\traditional\math\addFP.asm
            jDifOrPosSign   0x001f18    program     static E:\3.46\pic18-lt\cxx-framework\src\traditional\math\addFP.asm
             jNotBothZero   0x001f1c    program     static E:\3.46\pic18-lt\cxx-framework\src\traditional\math\addFP.asm
                 jAltBexp   0x001f48    program     static E:\3.46\pic18-lt\cxx-framework\src\traditional\math\addFP.asm
              jAandWsetup   0x001f5a    program     static E:\3.46\pic18-lt\cxx-framework\src\traditional\math\addFP.asm
                 jANotNeg   0x001f8a    program     static E:\3.46\pic18-lt\cxx-framework\src\traditional\math\addFP.asm
                 jWNotNeg   0x001f9e    program     static E:\3.46\pic18-lt\cxx-framework\src\traditional\math\addFP.asm
               jShiftLoop   0x001fa4    program     static E:\3.46\pic18-lt\cxx-framework\src\traditional\math\addFP.asm
               jShiftDone   0x001fb2    program     static E:\3.46\pic18-lt\cxx-framework\src\traditional\math\addFP.asm
                jSignDone   0x001fe2    program     static E:\3.46\pic18-lt\cxx-framework\src\traditional\math\addFP.asm
               jFinalSign   0x001ff2    program     static E:\3.46\pic18-lt\cxx-framework\src\traditional\math\addFP.asm
                    FPD32   0x001ffa    program     extern E:\3.46\pic18-lt\cxx-framework\src\traditional\math\divFP.asm
                 jANotInf   0x002018    program     static E:\3.46\pic18-lt\cxx-framework\src\traditional\math\divFP.asm
              jSignedZero   0x002022    program     static E:\3.46\pic18-lt\cxx-framework\src\traditional\math\divFP.asm
                jANotZero   0x00202c    program     static E:\3.46\pic18-lt\cxx-framework\src\traditional\math\divFP.asm
                    jLoop   0x002054    program     static E:\3.46\pic18-lt\cxx-framework\src\traditional\math\divFP.asm
                jNoAdjust   0x002078    program     static E:\3.46\pic18-lt\cxx-framework\src\traditional\math\divFP.asm
                    jNext   0x00207a    program     static E:\3.46\pic18-lt\cxx-framework\src\traditional\math\divFP.asm
                    FPM32   0x0020a0    program     extern E:\3.46\pic18-lt\cxx-framework\src\traditional\math\mulFP.asm
                 jANotInf   0x0020be    program     static E:\3.46\pic18-lt\cxx-framework\src\traditional\math\mulFP.asm
              jBothFinite   0x0020cc    program     static E:\3.46\pic18-lt\cxx-framework\src\traditional\math\mulFP.asm
                jHaveZero   0x0020d4    program     static E:\3.46\pic18-lt\cxx-framework\src\traditional\math\mulFP.asm
             jBothNotZero   0x0020d8    program     static E:\3.46\pic18-lt\cxx-framework\src\traditional\math\mulFP.asm
                 FXD1616S   0x00217a    program     extern E:\3.46\pic18-lt\cxx-framework\src\traditional\math\fxd1616s.asm
                  DA1616S   0x00218c    program     static E:\3.46\pic18-lt\cxx-framework\src\traditional\math\fxd1616s.asm
                   D1616S   0x00219c    program     static E:\3.46\pic18-lt\cxx-framework\src\traditional\math\fxd1616s.asm
                 D1616SOK   0x0021a6    program     static E:\3.46\pic18-lt\cxx-framework\src\traditional\math\fxd1616s.asm
                D1616SNEG   0x0021aa    program     static E:\3.46\pic18-lt\cxx-framework\src\traditional\math\fxd1616s.asm
                  D1616SX   0x0021bc    program     static E:\3.46\pic18-lt\cxx-framework\src\traditional\math\fxd1616s.asm
                 FXM1616S   0x0021c6    program     extern E:\3.46\pic18-lt\cxx-framework\src\traditional\math\fxm1616s.asm
               TSIGN1616A   0x002212    program     static E:\3.46\pic18-lt\cxx-framework\src\traditional\math\fxm1616s.asm
                 FXM1616U   0x002220    program     extern E:\3.46\pic18-lt\cxx-framework\src\traditional\math\fxm1616u.asm
                  INT3216   0x00225c    program     extern E:\3.46\pic18-lt\cxx-framework\src\traditional\math\castFP16.asm
                     jMax   0x00226c    program     static E:\3.46\pic18-lt\cxx-framework\src\traditional\math\castFP16.asm
                  jMaxPos   0x002270    program     static E:\3.46\pic18-lt\cxx-framework\src\traditional\math\castFP16.asm
                  jMaxNeg   0x00227a    program     static E:\3.46\pic18-lt\cxx-framework\src\traditional\math\castFP16.asm
                    jZero   0x002282    program     static E:\3.46\pic18-lt\cxx-framework\src\traditional\math\castFP16.asm
                  jNotInf   0x002288    program     static E:\3.46\pic18-lt\cxx-framework\src\traditional\math\castFP16.asm
                    jLoop   0x002298    program     static E:\3.46\pic18-lt\cxx-framework\src\traditional\math\castFP16.asm
                jLoopExit   0x0022a8    program     static E:\3.46\pic18-lt\cxx-framework\src\traditional\math\castFP16.asm
                    jExit   0x0022b8    program     static E:\3.46\pic18-lt\cxx-framework\src\traditional\math\castFP16.asm
            __FpReturnNaN   0x0022ba    program     extern E:\3.46\pic18-lt\cxx-framework\src\traditional\math\packFP.asm
                 __FpExit   0x0022c6    program     extern E:\3.46\pic18-lt\cxx-framework\src\traditional\math\packFP.asm
        __FpReturnSignInf   0x0022c8    program     extern E:\3.46\pic18-lt\cxx-framework\src\traditional\math\packFP.asm
         __FpReturnNegInf   0x0022cc    program     extern E:\3.46\pic18-lt\cxx-framework\src\traditional\math\packFP.asm
         __FpReturnPosInf   0x0022d2    program     extern E:\3.46\pic18-lt\cxx-framework\src\traditional\math\packFP.asm
           jReturnPosInf0   0x0022d6    program     static E:\3.46\pic18-lt\cxx-framework\src\traditional\math\packFP.asm
               jZero1and2   0x0022da    program     static E:\3.46\pic18-lt\cxx-framework\src\traditional\math\packFP.asm
       __FpReturnSignZero   0x0022e0    program     extern E:\3.46\pic18-lt\cxx-framework\src\traditional\math\packFP.asm
        __FpReturnNegZero   0x0022e4    program     extern E:\3.46\pic18-lt\cxx-framework\src\traditional\math\packFP.asm
        __FpReturnPosZero   0x0022ec    program     extern E:\3.46\pic18-lt\cxx-framework\src\traditional\math\packFP.asm
                 __FpPack   0x0022f2    program     extern E:\3.46\pic18-lt\cxx-framework\src\traditional\math\packFP.asm
                  jPkLoop   0x002300    program     static E:\3.46\pic18-lt\cxx-framework\src\traditional\math\packFP.asm
             jPkShiftDone   0x00231c    program     static E:\3.46\pic18-lt\cxx-framework\src\traditional\math\packFP.asm
               jPkRoundIt   0x002332    program     static E:\3.46\pic18-lt\cxx-framework\src\traditional\math\packFP.asm
             jPkRoundDone   0x00234a    program     static E:\3.46\pic18-lt\cxx-framework\src\traditional\math\packFP.asm
              __FpReturnW   0x00234a    program     extern E:\3.46\pic18-lt\cxx-framework\src\traditional\math\packFP.asm
              __FpUnPackA   0x00236a    program     extern E:\3.46\pic18-lt\cxx-framework\src\traditional\math\UnpackFP.asm
                  jUnpkA1   0x002374    program     static E:\3.46\pic18-lt\cxx-framework\src\traditional\math\UnpackFP.asm
                 jUnpkANZ   0x002382    program     static E:\3.46\pic18-lt\cxx-framework\src\traditional\math\UnpackFP.asm
                  jUnpkA2   0x00238c    program     static E:\3.46\pic18-lt\cxx-framework\src\traditional\math\UnpackFP.asm
                 jUnpkNaN   0x002396    program     static E:\3.46\pic18-lt\cxx-framework\src\traditional\math\UnpackFP.asm
              __FpUnPackB   0x00239a    program     extern E:\3.46\pic18-lt\cxx-framework\src\traditional\math\UnpackFP.asm
                  jUnpkB1   0x0023a4    program     static E:\3.46\pic18-lt\cxx-framework\src\traditional\math\UnpackFP.asm
                 jUnpkBNZ   0x0023b2    program     static E:\3.46\pic18-lt\cxx-framework\src\traditional\math\UnpackFP.asm
                  jUnpkB2   0x0023bc    program     static E:\3.46\pic18-lt\cxx-framework\src\traditional\math\UnpackFP.asm
                     itoa   0x0023c6    program     extern E:\3.46\pic18-lt\cxx-framework\src\traditional\stdclib\itoa.asm
                jTstSign1   0x0023f2    program     static E:\3.46\pic18-lt\cxx-framework\src\traditional\stdclib\itoa.asm
                     jDo5   0x00243c    program     static E:\3.46\pic18-lt\cxx-framework\src\traditional\stdclib\itoa.asm
                     jDo4   0x002440    program     static E:\3.46\pic18-lt\cxx-framework\src\traditional\stdclib\itoa.asm
                     jDo3   0x002444    program     static E:\3.46\pic18-lt\cxx-framework\src\traditional\stdclib\itoa.asm
                     jDo2   0x002448    program     static E:\3.46\pic18-lt\cxx-framework\src\traditional\stdclib\itoa.asm
                     jDo1   0x00244c    program     static E:\3.46\pic18-lt\cxx-framework\src\traditional\stdclib\itoa.asm
                 TstUpper   0x002480    program     static E:\3.46\pic18-lt\cxx-framework\src\traditional\stdclib\itoa.asm
                 TstLower   0x002486    program     static E:\3.46\pic18-lt\cxx-framework\src\traditional\stdclib\itoa.asm
                jTstLowZ1   0x002490    program     static E:\3.46\pic18-lt\cxx-framework\src\traditional\stdclib\itoa.asm
                ProcUpper   0x002492    program     static E:\3.46\pic18-lt\cxx-framework\src\traditional\stdclib\itoa.asm
                ProcLower   0x00249c    program     static E:\3.46\pic18-lt\cxx-framework\src\traditional\stdclib\itoa.asm
                   itoBCD   0x0024a6    program     extern E:\3.46\pic18-lt\cxx-framework\src\traditional\stdclib\itobcd.asm
                    jLoop   0x0024be    program     static E:\3.46\pic18-lt\cxx-framework\src\traditional\stdclib\itobcd.asm
                     jEnd   0x0024e4    program     static E:\3.46\pic18-lt\cxx-framework\src\traditional\stdclib\itobcd.asm
                  OneByte   0x0024e8    program     static E:\3.46\pic18-lt\cxx-framework\src\traditional\stdclib\itobcd.asm
                 OpenXLCD   0x0024fa    program     extern C:\Users\test\Desktop\NewIntegrate\lcdtest3.X\openxlcd.c
                  sprintf   0x0025e6    program     extern E:\3.46\pic18-lt\cxx-framework\src\traditional\stdclib\sprintf.c
                _do_cinit   0x002692    program     extern E:\3.46\pic18-lt\cxx-framework\src\traditional\startup\c018i.c
                     test   0x0026ac    program     static                          
                copy_loop   0x002704    program     static                          
            copy_one_byte   0x00270a    program     static                          
             done_copying   0x002718    program     static                          
       ___return_lbl00002   0x00272e    program     static                          
                     done   0x00272e    program     static                          
                     putc   0x002730    program     extern E:\3.46\pic18-lt\cxx-framework\src\traditional\stdclib\putc.c
                 OpenPWM2   0x0027b4    program     extern E:\3.46\pic18-lt\cxx-framework\src\pmc_common\PWM\pw2open.c
         ___else_lbl00002   0x0027f0    program     static                          
           ___if_lbl00001   0x0027f4    program     static                          
         ___else_lbl00004   0x0027fe    program     static                          
           ___if_lbl00003   0x002800    program     static                          
       ___return_lbl00000   0x002812    program     static                          
                putrsXLCD   0x00282a    program     extern C:\Users\test\Desktop\NewIntegrate\lcdtest3.X\putrxlcd.c
                  FXM3232   0x0028a0    program     extern E:\3.46\pic18-lt\cxx-framework\src\traditional\math\fxm3232.c
       ___return_lbl00000   0x00290e    program     static                          
                   strlen   0x002910    program     extern E:\3.46\pic18-lt\cxx-framework\src\traditional\stdclib\strlen.asm
                    jLoop   0x002920    program     static E:\3.46\pic18-lt\cxx-framework\src\traditional\stdclib\strlen.asm
                     jEnd   0x00292a    program     static E:\3.46\pic18-lt\cxx-framework\src\traditional\stdclib\strlen.asm
                strlenpgm   0x00292c    program     extern E:\3.46\pic18-lt\cxx-framework\src\traditional\stdclib\slenpgm.asm
                    jLoop   0x00294a    program     static E:\3.46\pic18-lt\cxx-framework\src\traditional\stdclib\slenpgm.asm
                   _2jEnd   0x002960    program     static E:\3.46\pic18-lt\cxx-framework\src\traditional\stdclib\slenpgm.asm
                     jEnd   0x002962    program     static E:\3.46\pic18-lt\cxx-framework\src\traditional\stdclib\slenpgm.asm
             SetDDRamAddr   0x002976    program     extern C:\Users\test\Desktop\NewIntegrate\lcdtest3.X\setddram.c
             SetCGRamAddr   0x0029d4    program     extern C:\Users\test\Desktop\NewIntegrate\lcdtest3.X\setcgram.c
                SetDCPWM2   0x002a32    program     extern E:\3.46\pic18-lt\cxx-framework\src\pmc_common\PWM\pw2setdc.c
               __string_4   0x002a90    program     static C:\Users\test\Desktop\NewIntegrate\lcdtest3.X\heartrate2.c
               __string_3   0x002a9a    program     static C:\Users\test\Desktop\NewIntegrate\lcdtest3.X\heartrate2.c
               __string_2   0x002aa1    program     static C:\Users\test\Desktop\NewIntegrate\lcdtest3.X\heartrate2.c
               __string_1   0x002aae    program     static C:\Users\test\Desktop\NewIntegrate\lcdtest3.X\heartrate2.c
               __string_0   0x002ab6    program     static C:\Users\test\Desktop\NewIntegrate\lcdtest3.X\heartrate2.c
               __string_1   0x002ace    program     static C:\Users\test\Desktop\NewIntegrate\lcdtest3.X\newtrymain.c
               __string_0   0x002add    program     static C:\Users\test\Desktop\NewIntegrate\lcdtest3.X\newtrymain.c
            WriteDataXLCD   0x002aec    program     extern C:\Users\test\Desktop\NewIntegrate\lcdtest3.X\writdata.c
             WriteCmdXLCD   0x002b48    program     extern C:\Users\test\Desktop\NewIntegrate\lcdtest3.X\wcmdxlcd.c
                 putsXLCD   0x002ba4    program     extern C:\Users\test\Desktop\NewIntegrate\lcdtest3.X\putsxlcd.c
               OpenRB1INT   0x002bfe    program     extern E:\3.46\pic18-lt\cxx-framework\src\pmc_common\PORTB\rb1open.c
             ReadDataXLCD   0x002c52    program     extern C:\Users\test\Desktop\NewIntegrate\lcdtest3.X\readdata.c
             ReadAddrXLCD   0x002ca4    program     extern C:\Users\test\Desktop\NewIntegrate\lcdtest3.X\readaddr.c
                 FXD3232U   0x002cf6    program     extern E:\3.46\pic18-lt\cxx-framework\src\traditional\math\fxd3232u.c
                     loop   0x002d04    program     static                          
                   _false   0x002d38    program     static                          
       ___return_lbl00000   0x002d3c    program     static                          
                  OpenADC   0x002d3e    program     extern E:\3.46\pic18-lt\cxx-framework\src\pmc_common\ADC\adcopen.c
              speakermain   0x002d86    program     extern C:\Users\test\Desktop\NewIntegrate\lcdtest3.X\speakermain.c
               OpenTimer1   0x002dca    program     extern E:\3.46\pic18-lt\cxx-framework\src\pmc_common\Timers\t1open.c
               ReadTimer0   0x002e0c    program     extern E:\3.46\pic18-lt\cxx-framework\src\pmc_common\Timers\t0read.c
                 BusyXLCD   0x002e4a    program     extern C:\Users\test\Desktop\NewIntegrate\lcdtest3.X\busyxlcd.c
              WriteTimer0   0x002e88    program     extern E:\3.46\pic18-lt\cxx-framework\src\pmc_common\Timers\t0write.c
               OpenTimer0   0x002ec0    program     extern E:\3.46\pic18-lt\cxx-framework\src\pmc_common\Timers\t0open.c
               OpenTimer2   0x002ef8    program     extern E:\3.46\pic18-lt\cxx-framework\src\pmc_common\Timers\t2open.c
             OpenCapture1   0x002f2e    program     extern E:\3.46\pic18-lt\cxx-framework\src\pmc_common\CCP\cp1open.c
             Delay10KTCYx   0x002f5e    program     extern E:\3.46\pic18-lt\cxx-framework\src\traditional\delays\d10ktcyx.asm
                    D10Kx   0x002f68    program     static E:\3.46\pic18-lt\cxx-framework\src\traditional\delays\d10ktcyx.asm
                   D10K_1   0x002f6a    program     static E:\3.46\pic18-lt\cxx-framework\src\traditional\delays\d10ktcyx.asm
       _D10KTCYXCODE_0010   0x002f6e    program     static E:\3.46\pic18-lt\cxx-framework\src\traditional\delays\d10ktcyx.asm
                    D10Kl   0x002f76    program     static E:\3.46\pic18-lt\cxx-framework\src\traditional\delays\d10ktcyx.asm
       _D10KTCYXCODE_001C   0x002f7a    program     static E:\3.46\pic18-lt\cxx-framework\src\traditional\delays\d10ktcyx.asm
                 FXD1616U   0x002f8c    program     extern E:\3.46\pic18-lt\cxx-framework\src\traditional\math\fxd1616u.c
                     loop   0x002f96    program     static                          
                  endloop   0x002fb2    program     static                          
       ___return_lbl00000   0x002fb6    program     static                          
                  isdigit   0x002fb8    program     extern E:\3.46\pic18-lt\cxx-framework\src\traditional\stdclib\isdigit.asm
                   jMatch   0x002fd8    program     static E:\3.46\pic18-lt\cxx-framework\src\traditional\stdclib\isdigit.asm
                 jNoMatch   0x002fda    program     static E:\3.46\pic18-lt\cxx-framework\src\traditional\stdclib\isdigit.asm
              Delay1KTCYx   0x002fdc    program     extern E:\3.46\pic18-lt\cxx-framework\src\traditional\delays\d1ktcyx.asm
                     D1Kx   0x002fe6    program     static E:\3.46\pic18-lt\cxx-framework\src\traditional\delays\d1ktcyx.asm
                    D1K_1   0x002fe8    program     static E:\3.46\pic18-lt\cxx-framework\src\traditional\delays\d1ktcyx.asm
        _D1KTCYXCODE_0010   0x002fec    program     static E:\3.46\pic18-lt\cxx-framework\src\traditional\delays\d1ktcyx.asm
        _D1KTCYXCODE_0016   0x002ff2    program     static E:\3.46\pic18-lt\cxx-framework\src\traditional\delays\d1ktcyx.asm
            __zero_memory   0x002ffc    program     extern E:\3.46\pic18-lt\cxx-framework\src\traditional\proc\p18f452.asm
               zero_block   0x00300a    program     static E:\3.46\pic18-lt\cxx-framework\src\traditional\proc\p18f452.asm
                   loop_h   0x00300a    program     static E:\3.46\pic18-lt\cxx-framework\src\traditional\proc\p18f452.asm
                compare_l   0x003012    program     static E:\3.46\pic18-lt\cxx-framework\src\traditional\proc\p18f452.asm
                   loop_l   0x003014    program     static E:\3.46\pic18-lt\cxx-framework\src\traditional\proc\p18f452.asm
                 _startup   0x00301c    program     extern E:\3.46\pic18-lt\cxx-framework\src\traditional\startup\c018i.c
                     loop   0x00302c    program     static                          
       ___return_lbl00001   0x003036    program     static                          
              _usart_putc   0x003038    program     extern E:\3.46\pic18-lt\cxx-framework\src\pmc_common\USART\_usartpc.asm
                     loop   0x003048    program     static E:\3.46\pic18-lt\cxx-framework\src\pmc_common\USART\_usartpc.asm
              Delay10TCYx   0x003054    program     extern E:\3.46\pic18-lt\cxx-framework\src\traditional\delays\d10tcyx.asm
                     D10x   0x00305c    program     static E:\3.46\pic18-lt\cxx-framework\src\traditional\delays\d10tcyx.asm
        _D10TCYXCODE_000A   0x00305e    program     static E:\3.46\pic18-lt\cxx-framework\src\traditional\delays\d10tcyx.asm
        _D10TCYXCODE_000C   0x003060    program     static E:\3.46\pic18-lt\cxx-framework\src\traditional\delays\d10tcyx.asm
        _D10TCYXCODE_000E   0x003062    program     static E:\3.46\pic18-lt\cxx-framework\src\traditional\delays\d10tcyx.asm
                    D10_1   0x003064    program     static E:\3.46\pic18-lt\cxx-framework\src\traditional\delays\d10tcyx.asm
                  ReadADC   0x00306a    program     extern E:\3.46\pic18-lt\cxx-framework\src\pmc_common\ADC\adcread.c
                 s_digits   0x00307c    program     static E:\3.46\pic18-lt\cxx-framework\src\traditional\stdclib\vfprintf.c
                  BusyADC   0x00308e    program     extern E:\3.46\pic18-lt\cxx-framework\src\pmc_common\ADC\adcbusy.c
            CloseCapture1   0x003098    program     extern E:\3.46\pic18-lt\cxx-framework\src\pmc_common\CCP\cp1close.c
                 CloseADC   0x00309e    program     extern E:\3.46\pic18-lt\cxx-framework\src\pmc_common\ADC\adcclose.c
               ConvertADC   0x0030a4    program     extern E:\3.46\pic18-lt\cxx-framework\src\pmc_common\ADC\adcconv.c
                   __init   0x0030a8    program     extern E:\3.46\pic18-lt\cxx-framework\src\traditional\stdclib\__init.c
               __config_0   0x300001    program     static C:\Users\test\Desktop\NewIntegrate\lcdtest3.X\heartrate2.c
               __config_1   0x300003    program     static C:\Users\test\Desktop\NewIntegrate\lcdtest3.X\heartrate2.c
               __config_2   0x300006    program     static C:\Users\test\Desktop\NewIntegrate\lcdtest3.X\heartrate2.c
                     SIGN   0x000000       data     extern E:\3.46\pic18-lt\cxx-framework\src\traditional\math\cmath18.asm
                __FPFLAGS   0x000001       data     extern E:\3.46\pic18-lt\cxx-framework\src\traditional\math\cmath18.asm
            __FPFLAGSbits   0x000001       data     extern E:\3.46\pic18-lt\cxx-framework\src\traditional\math\cmath18.asm
                  __REMB3   0x000002       data     extern E:\3.46\pic18-lt\cxx-framework\src\traditional\math\aarg.asm
                 __AARGB7   0x000002       data     extern E:\3.46\pic18-lt\cxx-framework\src\traditional\math\aarg.asm
                  __REMB2   0x000003       data     extern E:\3.46\pic18-lt\cxx-framework\src\traditional\math\aarg.asm
                 __AARGB6   0x000003       data     extern E:\3.46\pic18-lt\cxx-framework\src\traditional\math\aarg.asm
                  __REMB1   0x000004       data     extern E:\3.46\pic18-lt\cxx-framework\src\traditional\math\aarg.asm
                 __AARGB5   0x000004       data     extern E:\3.46\pic18-lt\cxx-framework\src\traditional\math\aarg.asm
                  __REMB0   0x000005       data     extern E:\3.46\pic18-lt\cxx-framework\src\traditional\math\aarg.asm
                 __AARGB4   0x000005       data     extern E:\3.46\pic18-lt\cxx-framework\src\traditional\math\aarg.asm
                 __AARGB3   0x000006       data     extern E:\3.46\pic18-lt\cxx-framework\src\traditional\math\aarg.asm
                 __AARGB2   0x000007       data     extern E:\3.46\pic18-lt\cxx-framework\src\traditional\math\aarg.asm
                 __AARGB1   0x000008       data     extern E:\3.46\pic18-lt\cxx-framework\src\traditional\math\aarg.asm
                 __AARGB0   0x000009       data     extern E:\3.46\pic18-lt\cxx-framework\src\traditional\math\aarg.asm
                   __AEXP   0x00000a       data     extern E:\3.46\pic18-lt\cxx-framework\src\traditional\math\aarg.asm
                 __BARGB3   0x00000b       data     extern E:\3.46\pic18-lt\cxx-framework\src\traditional\math\barg.asm
                 __BARGB2   0x00000c       data     extern E:\3.46\pic18-lt\cxx-framework\src\traditional\math\barg.asm
                 __BARGB1   0x00000d       data     extern E:\3.46\pic18-lt\cxx-framework\src\traditional\math\barg.asm
                 __BARGB0   0x00000e       data     extern E:\3.46\pic18-lt\cxx-framework\src\traditional\math\barg.asm
                   __BEXP   0x00000f       data     extern E:\3.46\pic18-lt\cxx-framework\src\traditional\math\barg.asm
                 __TEMPB3   0x000010       data     extern E:\3.46\pic18-lt\cxx-framework\src\traditional\math\temparg.asm
                 __TEMPB2   0x000011       data     extern E:\3.46\pic18-lt\cxx-framework\src\traditional\math\temparg.asm
                 __TEMPB1   0x000012       data     extern E:\3.46\pic18-lt\cxx-framework\src\traditional\math\temparg.asm
                 __TEMPB0   0x000013       data     extern E:\3.46\pic18-lt\cxx-framework\src\traditional\math\temparg.asm
                   __TEMP   0x000013       data     extern E:\3.46\pic18-lt\cxx-framework\src\traditional\math\temparg.asm
                  __tmp_0   0x000014       data     static E:\3.46\pic18-lt\cxx-framework\src\traditional\stdclib\vfprintf.c
                  __tmp_0   0x000014       data     static E:\3.46\pic18-lt\cxx-framework\src\traditional\stdclib\putc.c
                  __tmp_0   0x000014       data     static E:\3.46\pic18-lt\cxx-framework\src\traditional\stdclib\sprintf.c
                  __tmp_0   0x000014       data     static E:\3.46\pic18-lt\cxx-framework\src\pmc_common\PWM\pw2setdc.c
                  __tmp_0   0x000014       data     static C:\Users\test\Desktop\NewIntegrate\lcdtest3.X\heartrate2.c
                  __tmp_0   0x000014       data     static C:\Users\test\Desktop\NewIntegrate\lcdtest3.X\newtrymain.c
                  __tmp_0   0x000014       data     static E:\3.46\pic18-lt\cxx-framework\src\pmc_common\Timers\t0read.c
                  __tmp_0   0x000014       data     static E:\3.46\pic18-lt\cxx-framework\src\pmc_common\ADC\adcopen.c
                  __tmp_0   0x000014       data     static E:\3.46\pic18-lt\cxx-framework\src\pmc_common\ADC\adcread.c
                  __tmp_1   0x00001e       data     static C:\Users\test\Desktop\NewIntegrate\lcdtest3.X\heartrate2.c
            DelayCounter2   0x000020       data     extern E:\3.46\pic18-lt\cxx-framework\src\traditional\delays\delayd2.asm
            DelayCounter1   0x000021       data     extern E:\3.46\pic18-lt\cxx-framework\src\traditional\delays\delayd1.asm
              temp_degree   0x000080       data     extern C:\Users\test\Desktop\NewIntegrate\lcdtest3.X\newtrymain.c
                  tempLOW   0x000081       data     extern C:\Users\test\Desktop\NewIntegrate\lcdtest3.X\newtrymain.c
                 tempHIGH   0x000083       data     extern C:\Users\test\Desktop\NewIntegrate\lcdtest3.X\newtrymain.c
                  tempINT   0x000085       data     extern C:\Users\test\Desktop\NewIntegrate\lcdtest3.X\newtrymain.c
                  tempDEC   0x000087       data     extern C:\Users\test\Desktop\NewIntegrate\lcdtest3.X\newtrymain.c
                     Sign   0x000089       data     extern C:\Users\test\Desktop\NewIntegrate\lcdtest3.X\newtrymain.c
                 Hundreds   0x00008b       data     extern C:\Users\test\Desktop\NewIntegrate\lcdtest3.X\newtrymain.c
                     Tens   0x00008d       data     extern C:\Users\test\Desktop\NewIntegrate\lcdtest3.X\newtrymain.c
                     Ones   0x00008f       data     extern C:\Users\test\Desktop\NewIntegrate\lcdtest3.X\newtrymain.c
                  counter   0x000091       data     extern C:\Users\test\Desktop\NewIntegrate\lcdtest3.X\newtrymain.c
                Float_Val   0x000093       data     extern C:\Users\test\Desktop\NewIntegrate\lcdtest3.X\newtrymain.c
                   AvgInt   0x000097       data     extern C:\Users\test\Desktop\NewIntegrate\lcdtest3.X\newtrymain.c
                AVG_Fract   0x000099       data     extern C:\Users\test\Desktop\NewIntegrate\lcdtest3.X\newtrymain.c
                   SumInt   0x00009b       data     extern C:\Users\test\Desktop\NewIntegrate\lcdtest3.X\newtrymain.c
                 SumFract   0x00009d       data     extern C:\Users\test\Desktop\NewIntegrate\lcdtest3.X\newtrymain.c
           running_AvgInt   0x00009f       data     extern C:\Users\test\Desktop\NewIntegrate\lcdtest3.X\newtrymain.c
         running_AvgFract   0x0000a1       data     extern C:\Users\test\Desktop\NewIntegrate\lcdtest3.X\newtrymain.c
             approx_value   0x0000a3       data     extern C:\Users\test\Desktop\NewIntegrate\lcdtest3.X\newtrymain.c
            temp_SumFract   0x0000a5       data     extern C:\Users\test\Desktop\NewIntegrate\lcdtest3.X\newtrymain.c
          DEC_div_initial   0x0000a7       data     extern C:\Users\test\Desktop\NewIntegrate\lcdtest3.X\newtrymain.c
          INT_div_initial   0x0000ab       data     extern C:\Users\test\Desktop\NewIntegrate\lcdtest3.X\newtrymain.c
              DEC_div_val   0x0000af       data     extern C:\Users\test\Desktop\NewIntegrate\lcdtest3.X\newtrymain.c
      DEC_div_val_integer   0x0000b3       data     extern C:\Users\test\Desktop\NewIntegrate\lcdtest3.X\newtrymain.c
                  INT_var   0x0000b5       data     extern C:\Users\test\Desktop\NewIntegrate\lcdtest3.X\newtrymain.c
           INT_div_to_add   0x0000b7       data     extern C:\Users\test\Desktop\NewIntegrate\lcdtest3.X\newtrymain.c
          AVG_Fract_float   0x0000bb       data     extern C:\Users\test\Desktop\NewIntegrate\lcdtest3.X\newtrymain.c
                 counter2   0x0000bf       data     extern C:\Users\test\Desktop\NewIntegrate\lcdtest3.X\newtrymain.c
                     test   0x0000c1       data     extern C:\Users\test\Desktop\NewIntegrate\lcdtest3.X\newtrymain.c
                      h60   0x000100       data     extern C:\Users\test\Desktop\NewIntegrate\lcdtest3.X\heartrate2.c
                     hdis   0x000102       data     extern C:\Users\test\Desktop\NewIntegrate\lcdtest3.X\heartrate2.c
                    htime   0x000116       data     extern C:\Users\test\Desktop\NewIntegrate\lcdtest3.X\heartrate2.c
                    btime   0x00013e       data     extern C:\Users\test\Desktop\NewIntegrate\lcdtest3.X\heartrate2.c
                    ctime   0x000166       data     extern C:\Users\test\Desktop\NewIntegrate\lcdtest3.X\heartrate2.c
                     hrv1   0x00018e       data     extern C:\Users\test\Desktop\NewIntegrate\lcdtest3.X\heartrate2.c
                     hrv2   0x000190       data     extern C:\Users\test\Desktop\NewIntegrate\lcdtest3.X\heartrate2.c
                     hrv3   0x000194       data     extern C:\Users\test\Desktop\NewIntegrate\lcdtest3.X\heartrate2.c
                   hrate1   0x0001a8       data     extern C:\Users\test\Desktop\NewIntegrate\lcdtest3.X\heartrate2.c
                   hrate2   0x0001ac       data     extern C:\Users\test\Desktop\NewIntegrate\lcdtest3.X\heartrate2.c
                      Key   0x0001c0       data     extern C:\Users\test\Desktop\NewIntegrate\lcdtest3.X\heartrate2.c
                   Keygen   0x0001c2       data     extern C:\Users\test\Desktop\NewIntegrate\lcdtest3.X\heartrate2.c
                   Key100   0x0001ce       data     extern C:\Users\test\Desktop\NewIntegrate\lcdtest3.X\heartrate2.c
                   acount   0x0001d0       data     extern C:\Users\test\Desktop\NewIntegrate\lcdtest3.X\heartrate2.c
                  tempLSB   0x0001d2       data     extern C:\Users\test\Desktop\NewIntegrate\lcdtest3.X\newtrymain.c
                  tempMSB   0x0001d3       data     extern C:\Users\test\Desktop\NewIntegrate\lcdtest3.X\newtrymain.c
                tempprint   0x0001d4       data     extern C:\Users\test\Desktop\NewIntegrate\lcdtest3.X\newtrymain.c
                        i   0x0001e8       data     extern C:\Users\test\Desktop\NewIntegrate\lcdtest3.X\heartrate2.c
                   tcount   0x0001ea       data     extern C:\Users\test\Desktop\NewIntegrate\lcdtest3.X\heartrate2.c
                   gcount   0x0001ec       data     extern C:\Users\test\Desktop\NewIntegrate\lcdtest3.X\heartrate2.c
                        c   0x0001ee       data     extern C:\Users\test\Desktop\NewIntegrate\lcdtest3.X\heartrate2.c
                   hcount   0x0001f0       data     extern C:\Users\test\Desktop\NewIntegrate\lcdtest3.X\heartrate2.c
                 discount   0x0001f2       data     extern C:\Users\test\Desktop\NewIntegrate\lcdtest3.X\heartrate2.c
                     prom   0x0001f4       data     static E:\3.46\pic18-lt\cxx-framework\src\traditional\startup\c018i.c
                curr_byte   0x0001f7       data     static E:\3.46\pic18-lt\cxx-framework\src\traditional\startup\c018i.c
               curr_entry   0x0001f9       data     static E:\3.46\pic18-lt\cxx-framework\src\traditional\startup\c018i.c
                 data_ptr   0x0001fb       data     static E:\3.46\pic18-lt\cxx-framework\src\traditional\startup\c018i.c
                    PORTA   0x000f80       data     extern E:\3.46\pic18-lt\cxx-framework\src\traditional\proc\p18f452.asm
                PORTAbits   0x000f80       data     extern E:\3.46\pic18-lt\cxx-framework\src\traditional\proc\p18f452.asm
                PORTBbits   0x000f81       data     extern E:\3.46\pic18-lt\cxx-framework\src\traditional\proc\p18f452.asm
                    PORTB   0x000f81       data     extern E:\3.46\pic18-lt\cxx-framework\src\traditional\proc\p18f452.asm
                PORTCbits   0x000f82       data     extern E:\3.46\pic18-lt\cxx-framework\src\traditional\proc\p18f452.asm
                    PORTC   0x000f82       data     extern E:\3.46\pic18-lt\cxx-framework\src\traditional\proc\p18f452.asm
                PORTDbits   0x000f83       data     extern E:\3.46\pic18-lt\cxx-framework\src\traditional\proc\p18f452.asm
                    PORTD   0x000f83       data     extern E:\3.46\pic18-lt\cxx-framework\src\traditional\proc\p18f452.asm
                PORTEbits   0x000f84       data     extern E:\3.46\pic18-lt\cxx-framework\src\traditional\proc\p18f452.asm
                    PORTE   0x000f84       data     extern E:\3.46\pic18-lt\cxx-framework\src\traditional\proc\p18f452.asm
                 LATAbits   0x000f89       data     extern E:\3.46\pic18-lt\cxx-framework\src\traditional\proc\p18f452.asm
                     LATA   0x000f89       data     extern E:\3.46\pic18-lt\cxx-framework\src\traditional\proc\p18f452.asm
                     LATB   0x000f8a       data     extern E:\3.46\pic18-lt\cxx-framework\src\traditional\proc\p18f452.asm
                 LATBbits   0x000f8a       data     extern E:\3.46\pic18-lt\cxx-framework\src\traditional\proc\p18f452.asm
                     LATC   0x000f8b       data     extern E:\3.46\pic18-lt\cxx-framework\src\traditional\proc\p18f452.asm
                 LATCbits   0x000f8b       data     extern E:\3.46\pic18-lt\cxx-framework\src\traditional\proc\p18f452.asm
                     LATD   0x000f8c       data     extern E:\3.46\pic18-lt\cxx-framework\src\traditional\proc\p18f452.asm
                 LATDbits   0x000f8c       data     extern E:\3.46\pic18-lt\cxx-framework\src\traditional\proc\p18f452.asm
                 LATEbits   0x000f8d       data     extern E:\3.46\pic18-lt\cxx-framework\src\traditional\proc\p18f452.asm
                     LATE   0x000f8d       data     extern E:\3.46\pic18-lt\cxx-framework\src\traditional\proc\p18f452.asm
                 DDRAbits   0x000f92       data     extern E:\3.46\pic18-lt\cxx-framework\src\traditional\proc\p18f452.asm
                     DDRA   0x000f92       data     extern E:\3.46\pic18-lt\cxx-framework\src\traditional\proc\p18f452.asm
                TRISAbits   0x000f92       data     extern E:\3.46\pic18-lt\cxx-framework\src\traditional\proc\p18f452.asm
                    TRISA   0x000f92       data     extern E:\3.46\pic18-lt\cxx-framework\src\traditional\proc\p18f452.asm
                 DDRBbits   0x000f93       data     extern E:\3.46\pic18-lt\cxx-framework\src\traditional\proc\p18f452.asm
                     DDRB   0x000f93       data     extern E:\3.46\pic18-lt\cxx-framework\src\traditional\proc\p18f452.asm
                    TRISB   0x000f93       data     extern E:\3.46\pic18-lt\cxx-framework\src\traditional\proc\p18f452.asm
                TRISBbits   0x000f93       data     extern E:\3.46\pic18-lt\cxx-framework\src\traditional\proc\p18f452.asm
                 DDRCbits   0x000f94       data     extern E:\3.46\pic18-lt\cxx-framework\src\traditional\proc\p18f452.asm
                     DDRC   0x000f94       data     extern E:\3.46\pic18-lt\cxx-framework\src\traditional\proc\p18f452.asm
                TRISCbits   0x000f94       data     extern E:\3.46\pic18-lt\cxx-framework\src\traditional\proc\p18f452.asm
                    TRISC   0x000f94       data     extern E:\3.46\pic18-lt\cxx-framework\src\traditional\proc\p18f452.asm
                     DDRD   0x000f95       data     extern E:\3.46\pic18-lt\cxx-framework\src\traditional\proc\p18f452.asm
                TRISDbits   0x000f95       data     extern E:\3.46\pic18-lt\cxx-framework\src\traditional\proc\p18f452.asm
                    TRISD   0x000f95       data     extern E:\3.46\pic18-lt\cxx-framework\src\traditional\proc\p18f452.asm
                 DDRDbits   0x000f95       data     extern E:\3.46\pic18-lt\cxx-framework\src\traditional\proc\p18f452.asm
                 DDREbits   0x000f96       data     extern E:\3.46\pic18-lt\cxx-framework\src\traditional\proc\p18f452.asm
                     DDRE   0x000f96       data     extern E:\3.46\pic18-lt\cxx-framework\src\traditional\proc\p18f452.asm
                TRISEbits   0x000f96       data     extern E:\3.46\pic18-lt\cxx-framework\src\traditional\proc\p18f452.asm
                    TRISE   0x000f96       data     extern E:\3.46\pic18-lt\cxx-framework\src\traditional\proc\p18f452.asm
                     PIE1   0x000f9d       data     extern E:\3.46\pic18-lt\cxx-framework\src\traditional\proc\p18f452.asm
                 PIE1bits   0x000f9d       data     extern E:\3.46\pic18-lt\cxx-framework\src\traditional\proc\p18f452.asm
                     PIR1   0x000f9e       data     extern E:\3.46\pic18-lt\cxx-framework\src\traditional\proc\p18f452.asm
                 PIR1bits   0x000f9e       data     extern E:\3.46\pic18-lt\cxx-framework\src\traditional\proc\p18f452.asm
                     IPR1   0x000f9f       data     extern E:\3.46\pic18-lt\cxx-framework\src\traditional\proc\p18f452.asm
                 IPR1bits   0x000f9f       data     extern E:\3.46\pic18-lt\cxx-framework\src\traditional\proc\p18f452.asm
                     PIE2   0x000fa0       data     extern E:\3.46\pic18-lt\cxx-framework\src\traditional\proc\p18f452.asm
                 PIE2bits   0x000fa0       data     extern E:\3.46\pic18-lt\cxx-framework\src\traditional\proc\p18f452.asm
                     PIR2   0x000fa1       data     extern E:\3.46\pic18-lt\cxx-framework\src\traditional\proc\p18f452.asm
                 PIR2bits   0x000fa1       data     extern E:\3.46\pic18-lt\cxx-framework\src\traditional\proc\p18f452.asm
                     IPR2   0x000fa2       data     extern E:\3.46\pic18-lt\cxx-framework\src\traditional\proc\p18f452.asm
                 IPR2bits   0x000fa2       data     extern E:\3.46\pic18-lt\cxx-framework\src\traditional\proc\p18f452.asm
                   EECON1   0x000fa6       data     extern E:\3.46\pic18-lt\cxx-framework\src\traditional\proc\p18f452.asm
               EECON1bits   0x000fa6       data     extern E:\3.46\pic18-lt\cxx-framework\src\traditional\proc\p18f452.asm
                   EECON2   0x000fa7       data     extern E:\3.46\pic18-lt\cxx-framework\src\traditional\proc\p18f452.asm
                   EEDATA   0x000fa8       data     extern E:\3.46\pic18-lt\cxx-framework\src\traditional\proc\p18f452.asm
                    EEADR   0x000fa9       data     extern E:\3.46\pic18-lt\cxx-framework\src\traditional\proc\p18f452.asm
                RCSTAbits   0x000fab       data     extern E:\3.46\pic18-lt\cxx-framework\src\traditional\proc\p18f452.asm
                    RCSTA   0x000fab       data     extern E:\3.46\pic18-lt\cxx-framework\src\traditional\proc\p18f452.asm
                TXSTAbits   0x000fac       data     extern E:\3.46\pic18-lt\cxx-framework\src\traditional\proc\p18f452.asm
                    TXSTA   0x000fac       data     extern E:\3.46\pic18-lt\cxx-framework\src\traditional\proc\p18f452.asm
                    TXREG   0x000fad       data     extern E:\3.46\pic18-lt\cxx-framework\src\traditional\proc\p18f452.asm
                    RCREG   0x000fae       data     extern E:\3.46\pic18-lt\cxx-framework\src\traditional\proc\p18f452.asm
                    SPBRG   0x000faf       data     extern E:\3.46\pic18-lt\cxx-framework\src\traditional\proc\p18f452.asm
                    T3CON   0x000fb1       data     extern E:\3.46\pic18-lt\cxx-framework\src\traditional\proc\p18f452.asm
                T3CONbits   0x000fb1       data     extern E:\3.46\pic18-lt\cxx-framework\src\traditional\proc\p18f452.asm
                    TMR3L   0x000fb2       data     extern E:\3.46\pic18-lt\cxx-framework\src\traditional\proc\p18f452.asm
                    TMR3H   0x000fb3       data     extern E:\3.46\pic18-lt\cxx-framework\src\traditional\proc\p18f452.asm
                  CCP2CON   0x000fba       data     extern E:\3.46\pic18-lt\cxx-framework\src\traditional\proc\p18f452.asm
              CCP2CONbits   0x000fba       data     extern E:\3.46\pic18-lt\cxx-framework\src\traditional\proc\p18f452.asm
                   CCPR2L   0x000fbb       data     extern E:\3.46\pic18-lt\cxx-framework\src\traditional\proc\p18f452.asm
                    CCPR2   0x000fbb       data     extern E:\3.46\pic18-lt\cxx-framework\src\traditional\proc\p18f452.asm
                   CCPR2H   0x000fbc       data     extern E:\3.46\pic18-lt\cxx-framework\src\traditional\proc\p18f452.asm
              CCP1CONbits   0x000fbd       data     extern E:\3.46\pic18-lt\cxx-framework\src\traditional\proc\p18f452.asm
                  CCP1CON   0x000fbd       data     extern E:\3.46\pic18-lt\cxx-framework\src\traditional\proc\p18f452.asm
                    CCPR1   0x000fbe       data     extern E:\3.46\pic18-lt\cxx-framework\src\traditional\proc\p18f452.asm
                   CCPR1L   0x000fbe       data     extern E:\3.46\pic18-lt\cxx-framework\src\traditional\proc\p18f452.asm
                   CCPR1H   0x000fbf       data     extern E:\3.46\pic18-lt\cxx-framework\src\traditional\proc\p18f452.asm
               ADCON1bits   0x000fc1       data     extern E:\3.46\pic18-lt\cxx-framework\src\traditional\proc\p18f452.asm
                   ADCON1   0x000fc1       data     extern E:\3.46\pic18-lt\cxx-framework\src\traditional\proc\p18f452.asm
               ADCON0bits   0x000fc2       data     extern E:\3.46\pic18-lt\cxx-framework\src\traditional\proc\p18f452.asm
                   ADCON0   0x000fc2       data     extern E:\3.46\pic18-lt\cxx-framework\src\traditional\proc\p18f452.asm
                   ADRESL   0x000fc3       data     extern E:\3.46\pic18-lt\cxx-framework\src\traditional\proc\p18f452.asm
                    ADRES   0x000fc3       data     extern E:\3.46\pic18-lt\cxx-framework\src\traditional\proc\p18f452.asm
                   ADRESH   0x000fc4       data     extern E:\3.46\pic18-lt\cxx-framework\src\traditional\proc\p18f452.asm
              SSPCON2bits   0x000fc5       data     extern E:\3.46\pic18-lt\cxx-framework\src\traditional\proc\p18f452.asm
                  SSPCON2   0x000fc5       data     extern E:\3.46\pic18-lt\cxx-framework\src\traditional\proc\p18f452.asm
              SSPCON1bits   0x000fc6       data     extern E:\3.46\pic18-lt\cxx-framework\src\traditional\proc\p18f452.asm
                  SSPCON1   0x000fc6       data     extern E:\3.46\pic18-lt\cxx-framework\src\traditional\proc\p18f452.asm
              SSPSTATbits   0x000fc7       data     extern E:\3.46\pic18-lt\cxx-framework\src\traditional\proc\p18f452.asm
                  SSPSTAT   0x000fc7       data     extern E:\3.46\pic18-lt\cxx-framework\src\traditional\proc\p18f452.asm
                   SSPADD   0x000fc8       data     extern E:\3.46\pic18-lt\cxx-framework\src\traditional\proc\p18f452.asm
                   SSPBUF   0x000fc9       data     extern E:\3.46\pic18-lt\cxx-framework\src\traditional\proc\p18f452.asm
                T2CONbits   0x000fca       data     extern E:\3.46\pic18-lt\cxx-framework\src\traditional\proc\p18f452.asm
                    T2CON   0x000fca       data     extern E:\3.46\pic18-lt\cxx-framework\src\traditional\proc\p18f452.asm
                      PR2   0x000fcb       data     extern E:\3.46\pic18-lt\cxx-framework\src\traditional\proc\p18f452.asm
                     TMR2   0x000fcc       data     extern E:\3.46\pic18-lt\cxx-framework\src\traditional\proc\p18f452.asm
                    T1CON   0x000fcd       data     extern E:\3.46\pic18-lt\cxx-framework\src\traditional\proc\p18f452.asm
                T1CONbits   0x000fcd       data     extern E:\3.46\pic18-lt\cxx-framework\src\traditional\proc\p18f452.asm
                    TMR1L   0x000fce       data     extern E:\3.46\pic18-lt\cxx-framework\src\traditional\proc\p18f452.asm
                    TMR1H   0x000fcf       data     extern E:\3.46\pic18-lt\cxx-framework\src\traditional\proc\p18f452.asm
                 RCONbits   0x000fd0       data     extern E:\3.46\pic18-lt\cxx-framework\src\traditional\proc\p18f452.asm
                     RCON   0x000fd0       data     extern E:\3.46\pic18-lt\cxx-framework\src\traditional\proc\p18f452.asm
               WDTCONbits   0x000fd1       data     extern E:\3.46\pic18-lt\cxx-framework\src\traditional\proc\p18f452.asm
                   WDTCON   0x000fd1       data     extern E:\3.46\pic18-lt\cxx-framework\src\traditional\proc\p18f452.asm
               LVDCONbits   0x000fd2       data     extern E:\3.46\pic18-lt\cxx-framework\src\traditional\proc\p18f452.asm
                   LVDCON   0x000fd2       data     extern E:\3.46\pic18-lt\cxx-framework\src\traditional\proc\p18f452.asm
                   OSCCON   0x000fd3       data     extern E:\3.46\pic18-lt\cxx-framework\src\traditional\proc\p18f452.asm
               OSCCONbits   0x000fd3       data     extern E:\3.46\pic18-lt\cxx-framework\src\traditional\proc\p18f452.asm
                    T0CON   0x000fd5       data     extern E:\3.46\pic18-lt\cxx-framework\src\traditional\proc\p18f452.asm
                T0CONbits   0x000fd5       data     extern E:\3.46\pic18-lt\cxx-framework\src\traditional\proc\p18f452.asm
                    TMR0L   0x000fd6       data     extern E:\3.46\pic18-lt\cxx-framework\src\traditional\proc\p18f452.asm
                    TMR0H   0x000fd7       data     extern E:\3.46\pic18-lt\cxx-framework\src\traditional\proc\p18f452.asm
               STATUSbits   0x000fd8       data     extern E:\3.46\pic18-lt\cxx-framework\src\traditional\proc\p18f452.asm
                   STATUS   0x000fd8       data     extern E:\3.46\pic18-lt\cxx-framework\src\traditional\proc\p18f452.asm
                    FSR2L   0x000fd9       data     extern E:\3.46\pic18-lt\cxx-framework\src\traditional\proc\p18f452.asm
                     FSR2   0x000fd9       data     extern E:\3.46\pic18-lt\cxx-framework\src\traditional\proc\p18f452.asm
                    FSR2H   0x000fda       data     extern E:\3.46\pic18-lt\cxx-framework\src\traditional\proc\p18f452.asm
                   PLUSW2   0x000fdb       data     extern E:\3.46\pic18-lt\cxx-framework\src\traditional\proc\p18f452.asm
                  PREINC2   0x000fdc       data     extern E:\3.46\pic18-lt\cxx-framework\src\traditional\proc\p18f452.asm
                 POSTDEC2   0x000fdd       data     extern E:\3.46\pic18-lt\cxx-framework\src\traditional\proc\p18f452.asm
                 POSTINC2   0x000fde       data     extern E:\3.46\pic18-lt\cxx-framework\src\traditional\proc\p18f452.asm
                    INDF2   0x000fdf       data     extern E:\3.46\pic18-lt\cxx-framework\src\traditional\proc\p18f452.asm
                      BSR   0x000fe0       data     extern E:\3.46\pic18-lt\cxx-framework\src\traditional\proc\p18f452.asm
                    FSR1L   0x000fe1       data     extern E:\3.46\pic18-lt\cxx-framework\src\traditional\proc\p18f452.asm
                     FSR1   0x000fe1       data     extern E:\3.46\pic18-lt\cxx-framework\src\traditional\proc\p18f452.asm
                    FSR1H   0x000fe2       data     extern E:\3.46\pic18-lt\cxx-framework\src\traditional\proc\p18f452.asm
                   PLUSW1   0x000fe3       data     extern E:\3.46\pic18-lt\cxx-framework\src\traditional\proc\p18f452.asm
                  PREINC1   0x000fe4       data     extern E:\3.46\pic18-lt\cxx-framework\src\traditional\proc\p18f452.asm
                 POSTDEC1   0x000fe5       data     extern E:\3.46\pic18-lt\cxx-framework\src\traditional\proc\p18f452.asm
                 POSTINC1   0x000fe6       data     extern E:\3.46\pic18-lt\cxx-framework\src\traditional\proc\p18f452.asm
                    INDF1   0x000fe7       data     extern E:\3.46\pic18-lt\cxx-framework\src\traditional\proc\p18f452.asm
                     WREG   0x000fe8       data     extern E:\3.46\pic18-lt\cxx-framework\src\traditional\proc\p18f452.asm
                        W   0x000fe8       data     extern E:\3.46\pic18-lt\cxx-framework\src\traditional\proc\p18f452.asm
                     FSR0   0x000fe9       data     extern E:\3.46\pic18-lt\cxx-framework\src\traditional\proc\p18f452.asm
                    FSR0L   0x000fe9       data     extern E:\3.46\pic18-lt\cxx-framework\src\traditional\proc\p18f452.asm
                    FSR0H   0x000fea       data     extern E:\3.46\pic18-lt\cxx-framework\src\traditional\proc\p18f452.asm
                   PLUSW0   0x000feb       data     extern E:\3.46\pic18-lt\cxx-framework\src\traditional\proc\p18f452.asm
                  PREINC0   0x000fec       data     extern E:\3.46\pic18-lt\cxx-framework\src\traditional\proc\p18f452.asm
                 POSTDEC0   0x000fed       data     extern E:\3.46\pic18-lt\cxx-framework\src\traditional\proc\p18f452.asm
                 POSTINC0   0x000fee       data     extern E:\3.46\pic18-lt\cxx-framework\src\traditional\proc\p18f452.asm
                    INDF0   0x000fef       data     extern E:\3.46\pic18-lt\cxx-framework\src\traditional\proc\p18f452.asm
                  INTCON3   0x000ff0       data     extern E:\3.46\pic18-lt\cxx-framework\src\traditional\proc\p18f452.asm
              INTCON3bits   0x000ff0       data     extern E:\3.46\pic18-lt\cxx-framework\src\traditional\proc\p18f452.asm
              INTCON2bits   0x000ff1       data     extern E:\3.46\pic18-lt\cxx-framework\src\traditional\proc\p18f452.asm
                  INTCON2   0x000ff1       data     extern E:\3.46\pic18-lt\cxx-framework\src\traditional\proc\p18f452.asm
              INTCON1bits   0x000ff2       data     extern E:\3.46\pic18-lt\cxx-framework\src\traditional\proc\p18f452.asm
                  INTCON1   0x000ff2       data     extern E:\3.46\pic18-lt\cxx-framework\src\traditional\proc\p18f452.asm
                   INTCON   0x000ff2       data     extern E:\3.46\pic18-lt\cxx-framework\src\traditional\proc\p18f452.asm
               INTCONbits   0x000ff2       data     extern E:\3.46\pic18-lt\cxx-framework\src\traditional\proc\p18f452.asm
                    PRODL   0x000ff3       data     extern E:\3.46\pic18-lt\cxx-framework\src\traditional\proc\p18f452.asm
                     PROD   0x000ff3       data     extern E:\3.46\pic18-lt\cxx-framework\src\traditional\proc\p18f452.asm
                    PRODH   0x000ff4       data     extern E:\3.46\pic18-lt\cxx-framework\src\traditional\proc\p18f452.asm
                   TABLAT   0x000ff5       data     extern E:\3.46\pic18-lt\cxx-framework\src\traditional\proc\p18f452.asm
                   TBLPTR   0x000ff6       data     extern E:\3.46\pic18-lt\cxx-framework\src\traditional\proc\p18f452.asm
                  TBLPTRL   0x000ff6       data     extern E:\3.46\pic18-lt\cxx-framework\src\traditional\proc\p18f452.asm
                  TBLPTRH   0x000ff7       data     extern E:\3.46\pic18-lt\cxx-framework\src\traditional\proc\p18f452.asm
                  TBLPTRU   0x000ff8       data     extern E:\3.46\pic18-lt\cxx-framework\src\traditional\proc\p18f452.asm
                      PCL   0x000ff9       data     extern E:\3.46\pic18-lt\cxx-framework\src\traditional\proc\p18f452.asm
                       PC   0x000ff9       data     extern E:\3.46\pic18-lt\cxx-framework\src\traditional\proc\p18f452.asm
                   PCLATH   0x000ffa       data     extern E:\3.46\pic18-lt\cxx-framework\src\traditional\proc\p18f452.asm
                   PCLATU   0x000ffb       data     extern E:\3.46\pic18-lt\cxx-framework\src\traditional\proc\p18f452.asm
               STKPTRbits   0x000ffc       data     extern E:\3.46\pic18-lt\cxx-framework\src\traditional\proc\p18f452.asm
                   STKPTR   0x000ffc       data     extern E:\3.46\pic18-lt\cxx-framework\src\traditional\proc\p18f452.asm
                      TOS   0x000ffd       data     extern E:\3.46\pic18-lt\cxx-framework\src\traditional\proc\p18f452.asm
                     TOSL   0x000ffd       data     extern E:\3.46\pic18-lt\cxx-framework\src\traditional\proc\p18f452.asm
                     TOSH   0x000ffe       data     extern E:\3.46\pic18-lt\cxx-framework\src\traditional\proc\p18f452.asm
                     TOSU   0x000fff       data     extern E:\3.46\pic18-lt\cxx-framework\src\traditional\proc\p18f452.asm


