Disassembly Listing for Menu
Generated From:
C:/MPLabXProjects/Group_Project/ecng3006-project/Menu/dist/default/debug/Menu.debug.cof
Nov 29, 2019 8:56:43 PM

---  E:/3.46/pic18-lt/cxx-framework/src/traditional/stdclib/vfprintf.c  ---------------------------------
0050  EC64     CALL 0xAC8, 0
0052  F005     NOP
0AC8  CFD9     MOVFF FSR2, POSTINC1
0ACA  FFE6     NOP
0ACC  CFDA     MOVFF FSR2H, POSTINC1
0ACE  FFE6     NOP
0AD0  CFE1     MOVFF FSR1, FSR2
0AD2  FFD9     NOP
0AD4  CFE2     MOVFF FSR1H, FSR2H
0AD6  FFDA     NOP
0AD8  0012     RETURN 0
0054  0EFB     MOVLW 0xFB
0056  CFDB     MOVFF PLUSW2, PROD
0058  FFF3     NOP
005A  06DB     DECF PLUSW2, F, ACCESS
005C  50F3     MOVF PROD, W, ACCESS
005E  0900     IORLW 0x0
0060  E00A     BZ 0x76
0062  ECB2     CALL 0xB64, 0
0064  F005     NOP
0066  0EFA     MOVLW 0xFA
0068  EC1D     CALL 0xC3A, 0
006A  F006     NOP
006C  E1F3     BNZ 0x54
006E  1C15     COMF digit_cnt, W, ACCESS
0070  E1F1     BNZ 0x54
0072  0E01     MOVLW 0x1
0074  D001     BRA 0x78
0076  0E00     MOVLW 0x0
0078  EF93     GOTO 0xB26
007A  F005     NOP
0B26  52E5     MOVF POSTDEC1, F, ACCESS
0B28  CFE5     MOVFF POSTDEC1, FSR2H
0B2A  FFDA     NOP
0B2C  CFE7     MOVFF INDF1, FSR2
0B2E  FFD9     NOP
0B30  0012     RETURN 0
007C  EC64     CALL 0xAC8, 0
007E  F005     NOP
0080  0E3B     MOVLW 0x3B
0082  24E1     ADDWF FSR1, W, ACCESS
0084  E302     BNC 0x8A
0086  68E1     SETF FSR1, ACCESS
0088  52E6     MOVF POSTINC1, F, ACCESS
008A  6EE1     MOVWF FSR1, ACCESS
008C  0E01     MOVLW 0x1
008E  6ADB     CLRF PLUSW2, ACCESS
0090  0E02     MOVLW 0x2
0092  6ADB     CLRF PLUSW2, ACCESS
0094  0EF9     MOVLW 0xF9
0096  CFDB     MOVFF PLUSW2, TBLPTR
0098  FFF6     NOP
009A  0EFA     MOVLW 0xFA
009C  CFDB     MOVFF PLUSW2, TBLPTRH
009E  FFF7     NOP
00A0  0EFB     MOVLW 0xFB
00A2  CFDB     MOVFF PLUSW2, TBLPTRU
00A4  FFF8     NOP
00A6  0008     TBLRD*
00A8  50F5     MOVF TABLAT, W, ACCESS
00AA  6EDF     MOVWF INDF2, ACCESS
00AC  50DF     MOVF INDF2, W, ACCESS
00AE  E102     BNZ 0xB4
00B0  EFB7     GOTO 0x96E
00B2  F004     NOP
0968  D979     RCALL __pa_45
096A  EF53     GOTO 0xA6
096C  F000     NOP
0C5C  50D9     MOVF FSR2, W, ACCESS
0C5E  0FF9     ADDLW 0xF9
0C60  6EE9     MOVWF FSR0, ACCESS
0C62  0EFF     MOVLW 0xFF
0C64  EFC7     GOTO 0xB8E
0C66  F005     NOP
00B4  0E25     MOVLW 0x25
00B6  5CDF     SUBWF INDF2, W, ACCESS
00B8  E002     BZ 0xBE
00BA  EFAA     GOTO 0x954
00BC  F004     NOP
00BE  0E03     MOVLW 0x3
00C0  6ADB     CLRF PLUSW2, ACCESS
00C2  0E04     MOVLW 0x4
00C4  6ADB     CLRF PLUSW2, ACCESS
00C6  0E05     MOVLW 0x5
00C8  6ADB     CLRF PLUSW2, ACCESS
00CA  0E06     MOVLW 0x6
00CC  6ADB     CLRF PLUSW2, ACCESS
00CE  0E07     MOVLW 0x7
00D0  6ADB     CLRF PLUSW2, ACCESS
00D2  ECCC     CALL 0x998, 0
00D4  F004     NOP
00D6  0E2D     MOVLW 0x2D
00D8  5CDF     SUBWF INDF2, W, ACCESS
00DA  E00C     BZ 0xF4
00DC  0E2B     MOVLW 0x2B
00DE  5CDF     SUBWF INDF2, W, ACCESS
00E0  E009     BZ 0xF4
00E2  0E20     MOVLW 0x20
00E4  5CDF     SUBWF INDF2, W, ACCESS
00E6  E006     BZ 0xF4
00E8  0E23     MOVLW 0x23
0126  D7D5     BRA 0xD2
00EA  5CDF     SUBWF INDF2, W, ACCESS
00EC  E003     BZ 0xF4
00EE  0E30     MOVLW 0x30
00F0  5CDF     SUBWF INDF2, W, ACCESS
00F2  E11A     BNZ 0x128
00F4  50DF     MOVF INDF2, W, ACCESS
00F6  0A30     XORLW 0x30
00F8  E014     BZ 0x122
00FA  0A13     XORLW 0x13
00FC  E00F     BZ 0x11C
00FE  0A03     XORLW 0x3
0100  E00A     BZ 0x116
0102  0A0B     XORLW 0xB
0104  E005     BZ 0x110
0106  0A06     XORLW 0x6
0108  E1E4     BNZ 0xD2
010A  0E03     MOVLW 0x3
010C  80DB     BSF PLUSW2, 0, ACCESS
010E  D7E1     BRA 0xD2
0110  0E03     MOVLW 0x3
0112  82DB     BSF PLUSW2, 1, ACCESS
0114  D7DE     BRA 0xD2
0116  0E03     MOVLW 0x3
0118  84DB     BSF PLUSW2, 2, ACCESS
011A  D7DB     BRA 0xD2
011C  0E03     MOVLW 0x3
011E  86DB     BSF PLUSW2, 3, ACCESS
0120  D7D8     BRA 0xD2
0122  0E03     MOVLW 0x3
0124  88DB     BSF PLUSW2, 4, ACCESS
0128  0E2A     MOVLW 0x2A
012A  5CDF     SUBWF INDF2, W, ACCESS
012C  E11B     BNZ 0x164
012E  ECC8     CALL 0x990, 0
0130  F004     NOP
0132  EC16     CALL 0xA2C, 0
0134  F005     NOP
0A2C  0E13     MOVLW 0x13
0A2E  CFEE     MOVFF POSTINC0, PLUSW2
0A30  FFDB     NOP
0A32  0E14     MOVLW 0x14
0A34  CFED     MOVFF POSTDEC0, PLUSW2
0A36  FFDB     NOP
0136  E010     BZ 0x158
0A38  0E13     MOVLW 0x13
0A3A  CFDB     MOVFF PLUSW2, __tmp_0
0A3C  F014     NOP
0A3E  0E14     MOVLW 0x14
0A40  CFDB     MOVFF PLUSW2, digit_cnt
0A42  F015     NOP
0A44  0100     MOVLB 0x0
0A46  0E80     MOVLW 0x80
0A48  1415     ANDWF digit_cnt, W, ACCESS
0A4A  0012     RETURN 0
0138  0E03     MOVLW 0x3
013A  80DB     BSF PLUSW2, 0, ACCESS
013C  6808     SETF count, ACCESS
013E  6809     SETF cval, ACCESS
0140  0E13     MOVLW 0x13
0142  CFDB     MOVFF PLUSW2, 0xD
0144  F00D     NOP
0146  0E14     MOVLW 0x14
0148  CFDB     MOVFF PLUSW2, romstring
014A  F00E     NOP
014C  EC2B     CALL 0x1656, 0
014E  F00B     NOP
0150  0E04     MOVLW 0x4
0152  C006     MOVFF have_precision, PLUSW2
0154  FFDB     NOP
0156  D003     BRA 0x15E
0158  0E13     MOVLW 0x13
015A  ECFF     CALL 0x9FE, 0
015C  F004     NOP
015E  ECCC     CALL 0x998, 0
0160  F004     NOP
0162  D00B     BRA 0x17A
0164  0E09     MOVLW 0x9
0166  6ADB     CLRF PLUSW2, ACCESS
0168  EC6D     CALL 0xADA, 0
016A  F005     NOP
016C  E003     BZ 0x174
0172  D7FA     BRA 0x168
0ADA  CFDF     MOVFF INDF2, POSTINC1
0ADC  FFE6     NOP
0ADE  6AE6     CLRF POSTINC1, ACCESS
0AE0  ECDC     CALL 0x31B8, 0
0AE2  F018     NOP
0AE4  52E5     MOVF POSTDEC1, F, ACCESS
0AE6  52E5     MOVF POSTDEC1, F, ACCESS
0AE8  50F3     MOVF PROD, W, ACCESS
0AEA  0012     RETURN 0
016E  ECE1     CALL 0xBC2, 0
0170  F005     NOP
0BC2  0E09     MOVLW 0x9
0BC4  50DB     MOVF PLUSW2, W, ACCESS
0BC6  0D0A     MULLW 0xA
0BC8  50F3     MOVF PROD, W, ACCESS
0BCA  24DF     ADDWF INDF2, W, ACCESS
0BCC  0FD0     ADDLW 0xD0
0BCE  6EE7     MOVWF INDF1, ACCESS
0BD0  0E09     MOVLW 0x9
0BD2  CFE7     MOVFF INDF1, PLUSW2
0BD4  FFDB     NOP
0BD6  EFCC     GOTO 0x998
0BD8  F004     NOP
0174  0E09     MOVLW 0x9
0176  ECFF     CALL 0x9FE, 0
0178  F004     NOP
017A  0E03     MOVLW 0x3
017C  B0DB     BTFSC PLUSW2, 0, ACCESS
017E  98DB     BCF PLUSW2, 4, ACCESS
0180  0E2E     MOVLW 0x2E
0182  5CDF     SUBWF INDF2, W, ACCESS
0184  E11B     BNZ 0x1BC
0186  ECCC     CALL 0x998, 0
0188  F004     NOP
018A  0E2A     MOVLW 0x2A
018C  5CDF     SUBWF INDF2, W, ACCESS
018E  E10B     BNZ 0x1A6
0190  ECC8     CALL 0x990, 0
0192  F004     NOP
0194  EC16     CALL 0xA2C, 0
0196  F005     NOP
0990  D929     RCALL __pa_34
0992  0E02     MOVLW 0x2
0994  EFB9     GOTO 0xB72
0996  F005     NOP
0B72  5E14     SUBWF __tmp_0, F, ACCESS
0B74  0E00     MOVLW 0x0
0B76  5A15     SUBWFB digit_cnt, F, ACCESS
0B78  0EF7     MOVLW 0xF7
0B7A  C014     MOVFF __tmp_0, PLUSW2
0B7C  FFDB     NOP
0B7E  0EF8     MOVLW 0xF8
0B80  C015     MOVFF digit_cnt, PLUSW2
0B82  FFDB     NOP
0B84  C014     MOVFF __tmp_0, FSR0
0B86  FFE9     NOP
0B88  C015     MOVFF digit_cnt, FSR0H
0B8A  FFEA     NOP
0B8C  0012     RETURN 0
0BE4  0EF7     MOVLW 0xF7
0BE6  CFDB     MOVFF PLUSW2, __tmp_0
0BE8  F014     NOP
0BEA  0EF8     MOVLW 0xF8
0BEC  CFDB     MOVFF PLUSW2, digit_cnt
0BEE  F015     NOP
0BF0  0012     RETURN 0
0198  E103     BNZ 0x1A0
019A  0E13     MOVLW 0x13
019C  EC51     CALL 0xAA2, 0
019E  F005     NOP
0AA2  50DB     MOVF PLUSW2, W, ACCESS
0AA4  D8CE     RCALL __pa_42
0C42  6EE7     MOVWF INDF1, ACCESS
0C44  0E05     MOVLW 0x5
0C46  CFE7     MOVFF INDF1, PLUSW2
0C48  FFDB     NOP
0C4A  0012     RETURN 0
0AA6  0E01     MOVLW 0x1
0AA8  6EF3     MOVWF PROD, ACCESS
0AAA  0E06     MOVLW 0x6
0AAC  CFF3     MOVFF PROD, PLUSW2
0AAE  FFDB     NOP
0AB0  0012     RETURN 0
01A0  ECCC     CALL 0x998, 0
01A2  F004     NOP
01A4  D00B     BRA 0x1BC
01A6  0E09     MOVLW 0x9
01A8  6ADB     CLRF PLUSW2, ACCESS
01AA  EC6D     CALL 0xADA, 0
01AC  F005     NOP
01AE  E003     BZ 0x1B6
01B4  D7FA     BRA 0x1AA
01B0  ECE1     CALL 0xBC2, 0
01B2  F005     NOP
01B6  0E09     MOVLW 0x9
01B8  EC51     CALL 0xAA2, 0
01BA  F005     NOP
01BC  0E68     MOVLW 0x68
01BE  5CDF     SUBWF INDF2, W, ACCESS
01C0  E107     BNZ 0x1D0
01C2  ECCC     CALL 0x998, 0
01C4  F004     NOP
01C6  0E68     MOVLW 0x68
01C8  5CDF     SUBWF INDF2, W, ACCESS
01CA  E11D     BNZ 0x206
01CC  0E03     MOVLW 0x3
01CE  D018     BRA 0x200
01D0  0E74     MOVLW 0x74
01D2  5CDF     SUBWF INDF2, W, ACCESS
01D4  E017     BZ 0x204
01D6  0E7A     MOVLW 0x7A
01D8  5CDF     SUBWF INDF2, W, ACCESS
01DA  E014     BZ 0x204
01DC  0E48     MOVLW 0x48
01DE  5CDF     SUBWF INDF2, W, ACCESS
01E0  E006     BZ 0x1EE
01E2  0E54     MOVLW 0x54
01E4  5CDF     SUBWF INDF2, W, ACCESS
01E6  E003     BZ 0x1EE
01E8  0E5A     MOVLW 0x5A
01EA  5CDF     SUBWF INDF2, W, ACCESS
01EC  E102     BNZ 0x1F2
01EE  0E02     MOVLW 0x2
01F0  D007     BRA 0x200
01F2  0E6C     MOVLW 0x6C
01F4  5CDF     SUBWF INDF2, W, ACCESS
01F6  E003     BZ 0x1FE
01F8  0E6A     MOVLW 0x6A
01FA  5CDF     SUBWF INDF2, W, ACCESS
01FC  E104     BNZ 0x206
01FE  0E01     MOVLW 0x1
0200  ECA4     CALL 0xB48, 0
0202  F005     NOP
0204  DBC9     RCALL __pa_1
0998  D961     RCALL __pa_45
099A  0008     TBLRD*
099C  50F5     MOVF TABLAT, W, ACCESS
099E  6EDF     MOVWF INDF2, ACCESS
09A0  0012     RETURN 0
0B8E  20DA     ADDWFC FSR2H, W, ACCESS
0B90  6EEA     MOVWF FSR0H, ACCESS
0B92  2AEF     INCF INDF0, F, ACCESS
0B94  CFEE     MOVFF POSTINC0, TBLPTR
0B96  FFF6     NOP
0B98  0E00     MOVLW 0x0
0B9A  22EF     ADDWFC INDF0, F, ACCESS
0B9C  CFEE     MOVFF POSTINC0, TBLPTRH
0B9E  FFF7     NOP
0BA0  22EF     ADDWFC INDF0, F, ACCESS
0BA2  CFEE     MOVFF POSTINC0, TBLPTRU
0BA4  FFF8     NOP
0BA6  0012     RETURN 0
0206  50DF     MOVF INDF2, W, ACCESS
0208  0A6E     XORLW 0x6E
020A  E101     BNZ 0x20E
020C  D37F     BRA 0x90C
020E  0A1E     XORLW 0x1E
0210  E101     BNZ 0x214
0212  D192     BRA 0x538
0214  0A20     XORLW 0x20
0216  E101     BNZ 0x21A
0218  D18F     BRA 0x538
021A  0A3F     XORLW 0x3F
021C  E101     BNZ 0x220
021E  D149     BRA 0x4B2
0220  0A1A     XORLW 0x1A
0222  E101     BNZ 0x226
0224  D146     BRA 0x4B2
0226  0A0D     XORLW 0xD
0228  E101     BNZ 0x22C
022A  D143     BRA 0x4B2
022C  0A20     XORLW 0x20
022E  E101     BNZ 0x232
0230  D140     BRA 0x4B2
0232  0A3A     XORLW 0x3A
0234  E101     BNZ 0x238
0236  D13D     BRA 0x4B2
0238  0A20     XORLW 0x20
023A  E101     BNZ 0x23E
023C  D13A     BRA 0x4B2
023E  0A26     XORLW 0x26
0240  E101     BNZ 0x244
0242  D135     BRA 0x4AE
0244  0A0D     XORLW 0xD
0246  E101     BNZ 0x24A
0248  D132     BRA 0x4AE
024A  0A1A     XORLW 0x1A
024C  E101     BNZ 0x250
024E  D0D9     BRA 0x402
0250  0A20     XORLW 0x20
0252  E04A     BZ 0x2E8
0254  0A30     XORLW 0x30
0256  E01F     BZ 0x296
0258  0A46     XORLW 0x46
025A  E00E     BZ 0x278
025C  0A25     XORLW 0x25
025E  E001     BZ 0x262
0260  D383     BRA 0x968
0262  50D9     MOVF FSR2, W, ACCESS
0264  0FF9     ADDLW 0xF9
0266  6EE9     MOVWF FSR0, ACCESS
0268  0EFF     MOVLW 0xFF
026A  20DA     ADDWFC FSR2H, W, ACCESS
026C  6EEA     MOVWF FSR0H, ACCESS
026E  0E01     MOVLW 0x1
0270  5EEE     SUBWF POSTINC0, F, ACCESS
0272  0E00     MOVLW 0x0
0274  5AEE     SUBWFB POSTINC0, F, ACCESS
0276  5AEE     SUBWFB POSTINC0, F, ACCESS
0278  ECB2     CALL 0xB64, 0
027A  F005     NOP
027C  0E25     MOVLW 0x25
027E  6EE6     MOVWF POSTINC1, ACCESS
0280  DB95     RCALL __pa_3
0282  E103     BNZ 0x28A
0284  1C15     COMF digit_cnt, W, ACCESS
0286  E101     BNZ 0x28A
0288  D369     BRA 0x95C
028A  ECAE     CALL 0xB5C, 0
028C  F005     NOP
028E  E201     BC 0x292
0290  D36B     BRA 0x968
0292  2ADB     INCF PLUSW2, F, ACCESS
0294  D369     BRA 0x968
0296  0E08     MOVLW 0x8
0298  6ADB     CLRF PLUSW2, ACCESS
029A  0E04     MOVLW 0x4
029C  50DB     MOVF PLUSW2, W, ACCESS
029E  0801     SUBLW 0x1
02A0  E206     BC 0x2AE
02A2  0E04     MOVLW 0x4
02A4  04DB     DECF PLUSW2, W, ACCESS
02A6  EC76     CALL 0xAEC, 0
02A8  F005     NOP
02AA  50DB     MOVF PLUSW2, W, ACCESS
02AC  DB8B     RCALL __pa_4
02AE  0E08     MOVLW 0x8
02B0  50DB     MOVF PLUSW2, W, ACCESS
02B2  E009     BZ 0x2C6
02B4  0E03     MOVLW 0x3
02B6  50DB     MOVF PLUSW2, W, ACCESS
02B8  0B01     ANDLW 0x1
02BA  E105     BNZ 0x2C6
02BC  DB72     RCALL __pa_2
02BE  E001     BZ 0x2C2
02C0  D34D     BRA 0x95C
02C2  0E08     MOVLW 0x8
02C4  6ADB     CLRF PLUSW2, ACCESS
02C6  DB64     RCALL __pa_0
02C8  CFEF     MOVFF INDF0, INDF2
02CA  FFDF     NOP
02CC  EC26     CALL 0xC4C, 0
02CE  F006     NOP
02D0  E103     BNZ 0x2D8
02D2  1C15     COMF digit_cnt, W, ACCESS
02D4  E101     BNZ 0x2D8
02D6  D342     BRA 0x95C
02D8  ECAE     CALL 0xB5C, 0
02DA  F005     NOP
02DC  E301     BNC 0x2E0
02DE  2ADB     INCF PLUSW2, F, ACCESS
02E0  DB60     RCALL __pa_2
02E2  E101     BNZ 0x2E6
02E4  D341     BRA 0x968
02E6  D33A     BRA 0x95C
02E8  0E07     MOVLW 0x7
02EA  50DB     MOVF PLUSW2, W, ACCESS
02EC  0802     SUBLW 0x2
02EE  E10F     BNZ 0x30E
02F0  ECF2     CALL 0xBE4, 0
02F2  F005     NOP
02F4  0E03     MOVLW 0x3
02F6  ECB9     CALL 0xB72, 0
02F8  F005     NOP
02FA  0E0E     MOVLW 0xE
02FC  CFEE     MOVFF POSTINC0, PLUSW2
02FE  FFDB     NOP
0300  0E0F     MOVLW 0xF
0302  CFEE     MOVFF POSTINC0, PLUSW2
0304  FFDB     NOP
0306  0E10     MOVLW 0x10
0308  CFEE     MOVFF POSTINC0, PLUSW2
030A  FFDB     NOP
030C  D020     BRA 0x34E
030E  0EF7     MOVLW 0xF7
0310  CFDB     MOVFF PLUSW2, sign_char
0312  F017     NOP
0314  0EF8     MOVLW 0xF8
0316  CFDB     MOVFF PLUSW2, buf
0318  F018     NOP
031A  0E02     MOVLW 0x2
031C  5E17     SUBWF sign_char, F, ACCESS
031E  0E00     MOVLW 0x0
0320  5A18     SUBWFB buf, F, ACCESS
0322  0EF7     MOVLW 0xF7
0324  C017     MOVFF sign_char, PLUSW2
0326  FFDB     NOP
0328  0EF8     MOVLW 0xF8
032A  C018     MOVFF buf, PLUSW2
032C  FFDB     NOP
032E  C017     MOVFF sign_char, FSR0
0330  FFE9     NOP
0332  C018     MOVFF buf, FSR0H
0334  FFEA     NOP
0336  ECA9     CALL 0xB52, 0
0338  F005     NOP
033A  6A16     CLRF prefix_cnt, ACCESS
033C  0E0E     MOVLW 0xE
033E  C014     MOVFF __tmp_0, PLUSW2
0340  FFDB     NOP
0342  0E0F     MOVLW 0xF
0344  C015     MOVFF digit_cnt, PLUSW2
0346  FFDB     NOP
0348  0E10     MOVLW 0x10
034A  C016     MOVFF prefix_cnt, PLUSW2
034C  FFDB     NOP
034E  0E0E     MOVLW 0xE
0350  CFDB     MOVFF PLUSW2, POSTINC1
0352  FFE6     NOP
0354  0E0F     MOVLW 0xF
0356  CFDB     MOVFF PLUSW2, POSTINC1
0358  FFE6     NOP
035A  0E10     MOVLW 0x10
035C  CFDB     MOVFF PLUSW2, POSTINC1
035E  FFE6     NOP
0360  EC7E     CALL 0x2AFC, 0
0362  F015     NOP
0364  52E5     MOVF POSTDEC1, F, ACCESS
0366  52E5     MOVF POSTDEC1, F, ACCESS
0368  52E5     MOVF POSTDEC1, F, ACCESS
036A  0E13     MOVLW 0x13
036C  C007     MOVFF size, PLUSW2
036E  FFDB     NOP
0370  0E14     MOVLW 0x14
0372  C008     MOVFF count, PLUSW2
0374  FFDB     NOP
0376  0E06     MOVLW 0x6
0378  50DB     MOVF PLUSW2, W, ACCESS
037A  E005     BZ 0x386
037C  0E13     MOVLW 0x13
037E  ECED     CALL 0xBDA, 0
0380  F005     NOP
0382  E201     BC 0x386
0384  DB6A     RCALL __pa_11
0A5A  0E05     MOVLW 0x5
0A5C  50DB     MOVF PLUSW2, W, ACCESS
0A5E  6EE6     MOVWF POSTINC1, ACCESS
0A60  50D9     MOVF FSR2, W, ACCESS
0A62  0F13     ADDLW 0x13
0A64  D901     RCALL __pa_46
0A66  52E5     MOVF POSTDEC1, F, ACCESS
0A68  50E7     MOVF INDF1, W, ACCESS
0A6A  6EEE     MOVWF POSTINC0, ACCESS
0A6C  6AED     CLRF POSTDEC0, ACCESS
0A6E  0012     RETURN 0
0386  EC11     CALL 0xC22, 0
0388  F006     NOP
038A  E202     BC 0x390
0C22  0E13     MOVLW 0x13
0C24  50DB     MOVF PLUSW2, W, ACCESS
0C26  6EF3     MOVWF PROD, ACCESS
0C28  0E04     MOVLW 0x4
0C2A  EFFA     GOTO 0x9F4
0C2C  F004     NOP
038C  0E13     MOVLW 0x13
038E  DB37     RCALL __pa_7
0390  ECD4     CALL 0xBA8, 0
0392  F005     NOP
0BA8  0E04     MOVLW 0x4
0BAA  CFDB     MOVFF PLUSW2, POSTINC1
0BAC  FFE6     NOP
0BAE  0E13     MOVLW 0x13
0BB0  50DB     MOVF PLUSW2, W, ACCESS
0BB2  52E5     MOVF POSTDEC1, F, ACCESS
0BB4  5CE7     SUBWF INDF1, W, ACCESS
0BB6  DF9A     RCALL __pa_18
0BB8  50DB     MOVF PLUSW2, W, ACCESS
0BBA  DF04     RCALL __pa_4
0394  E006     BZ 0x3A2
0396  0E04     MOVLW 0x4
0398  ECED     CALL 0xBDA, 0
039A  F005     NOP
039C  E202     BC 0x3A2
0BBC  0E06     MOVLW 0x6
0BBE  50DB     MOVF PLUSW2, W, ACCESS
0BC0  0012     RETURN 0
039E  0E05     MOVLW 0x5
03A0  DB2E     RCALL __pa_7
03A2  0E03     MOVLW 0x3
03A4  B0DB     BTFSC PLUSW2, 0, ACCESS
03A6  D005     BRA 0x3B2
03A8  DAFC     RCALL __pa_2
03AA  E001     BZ 0x3AE
03AC  D2D7     BRA 0x95C
03AE  0E08     MOVLW 0x8
03B0  6ADB     CLRF PLUSW2, ACCESS
03B2  0E09     MOVLW 0x9
03B4  6ADB     CLRF PLUSW2, ACCESS
03B6  0E0E     MOVLW 0xE
03B8  CFDB     MOVFF PLUSW2, TBLPTR
03BA  FFF6     NOP
03BC  0E0F     MOVLW 0xF
03BE  CFDB     MOVFF PLUSW2, TBLPTRH
03C0  FFF7     NOP
03C2  0E10     MOVLW 0x10
03C4  CFDB     MOVFF PLUSW2, TBLPTRU
03C6  FFF8     NOP
03C8  0008     TBLRD*
03CA  50F5     MOVF TABLAT, W, ACCESS
03CC  6EDF     MOVWF INDF2, ACCESS
03CE  50DF     MOVF INDF2, W, ACCESS
03D0  E014     BZ 0x3FA
03D2  EC17     CALL 0xC2E, 0
03D4  F006     NOP
03D6  E211     BC 0x3FA
03EE  50D9     MOVF FSR2, W, ACCESS
03F0  0F0E     ADDLW 0xE
03F2  6EE9     MOVWF FSR0, ACCESS
03F4  0E00     MOVLW 0x0
03F6  DBCB     RCALL __pa_30
03F8  D7E7     BRA 0x3C8
0C2E  0E04     MOVLW 0x4
0C30  50DB     MOVF PLUSW2, W, ACCESS
0C32  6EF3     MOVWF PROD, ACCESS
0C34  0E09     MOVLW 0x9
0C36  EFFA     GOTO 0x9F4
0C38  F004     NOP
03D8  EC26     CALL 0xC4C, 0
03DA  F006     NOP
03DC  E103     BNZ 0x3E4
03DE  1C15     COMF digit_cnt, W, ACCESS
03E0  E101     BNZ 0x3E4
03E2  D2BC     BRA 0x95C
03E4  DBBB     RCALL __pa_27
03E6  E301     BNC 0x3EA
03E8  2ADB     INCF PLUSW2, F, ACCESS
03EA  0E09     MOVLW 0x9
03EC  2ADB     INCF PLUSW2, F, ACCESS
03FA  DAD3     RCALL __pa_2
03FC  E101     BNZ 0x400
03FE  D2B4     BRA 0x968
0400  D2AD     BRA 0x95C
0402  DAC6     RCALL __pa_0
0404  0E11     MOVLW 0x11
0406  CFEE     MOVFF POSTINC0, PLUSW2
0408  FFDB     NOP
040A  0E12     MOVLW 0x12
040C  CFED     MOVFF POSTDEC0, PLUSW2
040E  FFDB     NOP
0410  0E11     MOVLW 0x11
0412  CFDB     MOVFF PLUSW2, POSTINC1
0414  FFE6     NOP
0416  0E12     MOVLW 0x12
0418  CFDB     MOVFF PLUSW2, POSTINC1
041A  FFE6     NOP
041C  EC70     CALL 0x2AE0, 0
041E  F015     NOP
0420  52E5     MOVF POSTDEC1, F, ACCESS
0422  52E5     MOVF POSTDEC1, F, ACCESS
0424  0E13     MOVLW 0x13
0426  CFF3     MOVFF PROD, PLUSW2
0428  FFDB     NOP
042A  0E14     MOVLW 0x14
042C  CFF4     MOVFF PRODH, PLUSW2
042E  FFDB     NOP
0430  0E06     MOVLW 0x6
0432  50DB     MOVF PLUSW2, W, ACCESS
0434  E004     BZ 0x43E
0436  0E13     MOVLW 0x13
0438  DBD0     RCALL __pa_33
043A  E201     BC 0x43E
043C  DB0E     RCALL __pa_11
043E  EC11     CALL 0xC22, 0
0440  F006     NOP
0442  E202     BC 0x448
0444  0E13     MOVLW 0x13
0446  DADB     RCALL __pa_7
0448  DBAF     RCALL __pa_31
0AEC  6EE7     MOVWF INDF1, ACCESS
0AEE  0E08     MOVLW 0x8
0AF0  CFE7     MOVFF INDF1, PLUSW2
0AF2  FFDB     NOP
0AF4  0012     RETURN 0
044A  E005     BZ 0x456
044C  0E04     MOVLW 0x4
044E  DBC5     RCALL __pa_33
0450  E202     BC 0x456
0BDA  50DB     MOVF PLUSW2, W, ACCESS
0BDC  6EF3     MOVWF PROD, ACCESS
0BDE  0E05     MOVLW 0x5
0BE0  EFFA     GOTO 0x9F4
0BE2  F004     NOP
0452  0E05     MOVLW 0x5
0454  DAD4     RCALL __pa_7
09FE  50DB     MOVF PLUSW2, W, ACCESS
0A00  6EE7     MOVWF INDF1, ACCESS
0A02  0E04     MOVLW 0x4
0A04  CFE7     MOVFF INDF1, PLUSW2
0A06  FFDB     NOP
0A08  0012     RETURN 0
0456  0E03     MOVLW 0x3
0458  B0DB     BTFSC PLUSW2, 0, ACCESS
045A  D005     BRA 0x466
045C  DAA2     RCALL __pa_2
045E  E001     BZ 0x462
0460  D27D     BRA 0x95C
0462  0E08     MOVLW 0x8
0464  6ADB     CLRF PLUSW2, ACCESS
0466  0E09     MOVLW 0x9
0468  6ADB     CLRF PLUSW2, ACCESS
046A  0E11     MOVLW 0x11
046C  CFDB     MOVFF PLUSW2, FSR0
046E  FFE9     NOP
0470  0E12     MOVLW 0x12
0472  CFDB     MOVFF PLUSW2, FSR0H
0474  FFEA     NOP
0476  CFEF     MOVFF INDF0, INDF2
0478  FFDF     NOP
047A  50DF     MOVF INDF2, W, ACCESS
047C  E014     BZ 0x4A6
047E  DBD7     RCALL __pa_40
0480  E212     BC 0x4A6
0496  0E11     MOVLW 0x11
0498  2ADB     INCF PLUSW2, F, ACCESS
049A  CFDB     MOVFF PLUSW2, FSR0
049C  FFE9     NOP
049E  0E12     MOVLW 0x12
04A0  E3E8     BNC 0x472
04A2  2ADB     INCF PLUSW2, F, ACCESS
04A4  D7E6     BRA 0x472
0482  DBE4     RCALL __pa_43
0484  E103     BNZ 0x48C
0486  1C15     COMF digit_cnt, W, ACCESS
0488  E101     BNZ 0x48C
048A  D268     BRA 0x95C
048C  DB67     RCALL __pa_27
048E  E301     BNC 0x492
0490  2ADB     INCF PLUSW2, F, ACCESS
0492  0E09     MOVLW 0x9
0494  2ADB     INCF PLUSW2, F, ACCESS
04A6  DA7D     RCALL __pa_2
04A8  E101     BNZ 0x4AC
04AA  D25E     BRA 0x968
04AC  D257     BRA 0x95C
04AE  0E03     MOVLW 0x3
04B0  8EDB     BSF PLUSW2, 7, ACCESS
04B2  0E07     MOVLW 0x7
04B4  04DB     DECF PLUSW2, W, ACCESS
04B6  E110     BNZ 0x4D8
04B8  DB95     RCALL __pa_34
04BA  0E04     MOVLW 0x4
04BC  DB5A     RCALL __pa_29
04BE  0E0A     MOVLW 0xA
04C0  CFEE     MOVFF POSTINC0, PLUSW2
04C2  FFDB     NOP
04C4  0E0B     MOVLW 0xB
04C6  CFEE     MOVFF POSTINC0, PLUSW2
04C8  FFDB     NOP
04CA  0E0C     MOVLW 0xC
04CC  CFEE     MOVFF POSTINC0, PLUSW2
04CE  FFDB     NOP
04D0  0E0D     MOVLW 0xD
04D2  CFEE     MOVFF POSTINC0, PLUSW2
04D4  FFDB     NOP
04D6  D06C     BRA 0x5B0
04D8  0E07     MOVLW 0x7
04DA  50DB     MOVF PLUSW2, W, ACCESS
04DC  0803     SUBLW 0x3
04DE  E12C     BNZ 0x538
04E0  0E03     MOVLW 0x3
04E2  AEDB     BTFSS PLUSW2, 7, ACCESS
04E4  D00D     BRA 0x500
04E6  DAB2     RCALL __pa_10
04E8  0E02     MOVLW 0x2
04EA  DA76     RCALL __pa_5
04EC  CFEF     MOVFF INDF0, __tmp_0
04EE  F014     NOP
04F0  6A15     CLRF digit_cnt, ACCESS
04F2  6A16     CLRF prefix_cnt, ACCESS
04F4  6A17     CLRF sign_char, ACCESS
04F6  AE14     BTFSS __tmp_0, 7, ACCESS
04F8  D039     BRA 0x56C
04FA  6815     SETF digit_cnt, ACCESS
04FC  6816     SETF prefix_cnt, ACCESS
04FE  D035     BRA 0x56A
0500  0EF7     MOVLW 0xF7
0502  CFDB     MOVFF PLUSW2, digit_cnt
0504  F015     NOP
0506  0EF8     MOVLW 0xF8
0508  CFDB     MOVFF PLUSW2, prefix_cnt
050A  F016     NOP
050C  0E02     MOVLW 0x2
050E  5E15     SUBWF digit_cnt, F, ACCESS
0510  0E00     MOVLW 0x0
0512  5A16     SUBWFB prefix_cnt, F, ACCESS
0514  0EF7     MOVLW 0xF7
0516  C015     MOVFF digit_cnt, PLUSW2
0518  FFDB     NOP
051A  0EF8     MOVLW 0xF8
051C  C016     MOVFF prefix_cnt, PLUSW2
051E  FFDB     NOP
0520  C015     MOVFF digit_cnt, FSR0
0522  FFE9     NOP
0524  C016     MOVFF prefix_cnt, FSR0H
0526  FFEA     NOP
0528  CFEF     MOVFF INDF0, __tmp_0
052A  F014     NOP
052C  0E0A     MOVLW 0xA
052E  C014     MOVFF __tmp_0, PLUSW2
0530  FFDB     NOP
0532  0E0B     MOVLW 0xB
0534  6ADB     CLRF PLUSW2, ACCESS
0536  D038     BRA 0x5A8
0538  0E07     MOVLW 0x7
053A  50DB     MOVF PLUSW2, W, ACCESS
053C  0802     SUBLW 0x2
053E  E109     BNZ 0x552
0540  0E03     MOVLW 0x3
0542  AEDB     BTFSS PLUSW2, 7, ACCESS
0544  D004     BRA 0x54E
0546  DB59     RCALL __pa_36
0548  AE16     BTFSS prefix_cnt, 7, ACCESS
054A  D010     BRA 0x56C
0AF6  CFEE     MOVFF POSTINC0, __tmp_0
0AF8  F014     NOP
0AFA  CFEE     MOVFF POSTINC0, digit_cnt
0AFC  F015     NOP
0AFE  CFEF     MOVFF INDF0, prefix_cnt
0B00  F016     NOP
0B02  6A17     CLRF sign_char, ACCESS
0B04  0012     RETURN 0
0BFA  DF28     RCALL __pa_10
0BFC  0E03     MOVLW 0x3
0BFE  DEEC     RCALL __pa_5
0C00  EF7B     GOTO 0xAF6
0C02  F005     NOP
054C  D00E     BRA 0x56A
054E  DB55     RCALL __pa_36
0550  D00D     BRA 0x56C
0552  0E03     MOVLW 0x3
0554  AEDB     BTFSS PLUSW2, 7, ACCESS
0556  D012     BRA 0x57C
0558  DA79     RCALL __pa_10
055A  0E02     MOVLW 0x2
055C  DA3D     RCALL __pa_5
055E  DAF9     RCALL __pa_26
0560  6A16     CLRF prefix_cnt, ACCESS
0562  6A17     CLRF sign_char, ACCESS
0564  AE15     BTFSS digit_cnt, 7, ACCESS
0566  D002     BRA 0x56C
0568  6816     SETF prefix_cnt, ACCESS
056A  6817     SETF sign_char, ACCESS
056C  DAE2     RCALL __pa_23
056E  0E0C     MOVLW 0xC
0570  C016     MOVFF prefix_cnt, PLUSW2
0572  FFDB     NOP
0574  0E0D     MOVLW 0xD
0576  C017     MOVFF sign_char, PLUSW2
0578  FFDB     NOP
09D8  5E18     SUBWF buf, F, ACCESS
09DA  0E00     MOVLW 0x0
09DC  5A19     SUBWFB 0x19, F, ACCESS
09DE  0EF7     MOVLW 0xF7
09E0  C018     MOVFF buf, PLUSW2
09E2  FFDB     NOP
09E4  0EF8     MOVLW 0xF8
09E6  C019     MOVFF 0x19, PLUSW2
09E8  FFDB     NOP
09EA  C018     MOVFF buf, FSR0
09EC  FFE9     NOP
09EE  C019     MOVFF 0x19, FSR0H
09F0  FFEA     NOP
09F2  0012     RETURN 0
0A4C  0EF7     MOVLW 0xF7
0A4E  CFDB     MOVFF PLUSW2, buf
0A50  F018     NOP
0A52  0EF8     MOVLW 0xF8
0A54  CFDB     MOVFF PLUSW2, 0x19
0A56  F019     NOP
0A58  0012     RETURN 0
0B32  0E0A     MOVLW 0xA
0B34  C014     MOVFF __tmp_0, PLUSW2
0B36  FFDB     NOP
0B38  0E0B     MOVLW 0xB
0B3A  C015     MOVFF digit_cnt, PLUSW2
0B3C  FFDB     NOP
0B3E  0012     RETURN 0
0B52  CFEE     MOVFF POSTINC0, __tmp_0
0B54  F014     NOP
0B56  CFEF     MOVFF INDF0, digit_cnt
0B58  F015     NOP
0B5A  0012     RETURN 0
057A  D01A     BRA 0x5B0
057C  0EF7     MOVLW 0xF7
057E  CFDB     MOVFF PLUSW2, prefix_cnt
0580  F016     NOP
0582  0EF8     MOVLW 0xF8
0584  CFDB     MOVFF PLUSW2, sign_char
0586  F017     NOP
0588  0E02     MOVLW 0x2
058A  5E16     SUBWF prefix_cnt, F, ACCESS
058C  0E00     MOVLW 0x0
058E  5A17     SUBWFB sign_char, F, ACCESS
0590  0EF7     MOVLW 0xF7
0592  C016     MOVFF prefix_cnt, PLUSW2
0594  FFDB     NOP
0596  0EF8     MOVLW 0xF8
0598  C017     MOVFF sign_char, PLUSW2
059A  FFDB     NOP
059C  C016     MOVFF prefix_cnt, FSR0
059E  FFE9     NOP
05A0  C017     MOVFF sign_char, FSR0H
05A2  FFEA     NOP
05A4  DAD6     RCALL __pa_26
05A6  DAC5     RCALL __pa_23
05A8  0E0C     MOVLW 0xC
05AA  6ADB     CLRF PLUSW2, ACCESS
05AC  0E0D     MOVLW 0xD
05AE  6ADB     CLRF PLUSW2, ACCESS
05B0  0E06     MOVLW 0x6
05B2  50DB     MOVF PLUSW2, W, ACCESS
05B4  E105     BNZ 0x5C0
05B6  0E01     MOVLW 0x1
05B8  6EF3     MOVWF PROD, ACCESS
05BA  0E05     MOVLW 0x5
05BC  CFF3     MOVFF PROD, PLUSW2
05BE  FFDB     NOP
05C0  0E15     MOVLW 0x15
05C2  6ADB     CLRF PLUSW2, ACCESS
05C4  0E16     MOVLW 0x16
05C6  6ADB     CLRF PLUSW2, ACCESS
05C8  50D9     MOVF FSR2, W, ACCESS
05CA  0F37     ADDLW 0x37
05CC  6E14     MOVWF __tmp_0, ACCESS
05CE  0E00     MOVLW 0x0
05D0  20DA     ADDWFC FSR2H, W, ACCESS
05D2  6E15     MOVWF digit_cnt, ACCESS
05D4  0E39     MOVLW 0x39
05D6  C014     MOVFF __tmp_0, PLUSW2
05D8  FFDB     NOP
05DA  0E3A     MOVLW 0x3A
05DC  C015     MOVFF digit_cnt, PLUSW2
05DE  FFDB     NOP
05E0  0E38     MOVLW 0x38
05E2  6ADB     CLRF PLUSW2, ACCESS
05E4  0E08     MOVLW 0x8
05E6  6ADB     CLRF PLUSW2, ACCESS
05E8  0E0A     MOVLW 0xA
05EA  DAAE     RCALL __pa_25
05EC  50DF     MOVF INDF2, W, ACCESS
05EE  0A78     XORLW 0x78
05F0  E012     BZ 0x616
05F2  0A20     XORLW 0x20
05F4  E010     BZ 0x616
05F6  0A28     XORLW 0x28
05F8  E00C     BZ 0x612
05FA  0A20     XORLW 0x20
05FC  E00A     BZ 0x612
05FE  0A3F     XORLW 0x3F
0600  E006     BZ 0x60E
0602  0A0D     XORLW 0xD
0604  E002     BZ 0x60A
0606  0A20     XORLW 0x20
0608  E108     BNZ 0x61A
060A  0E02     MOVLW 0x2
060C  D005     BRA 0x618
060E  0E08     MOVLW 0x8
0610  D003     BRA 0x618
0612  0E08     MOVLW 0x8
0614  26DF     ADDWF INDF2, F, ACCESS
0616  0E10     MOVLW 0x10
0618  DA97     RCALL __pa_25
0B48  6EF3     MOVWF PROD, ACCESS
0B4A  0E07     MOVLW 0x7
0B4C  CFF3     MOVFF PROD, PLUSW2
0B4E  FFDB     NOP
0B50  0012     RETURN 0
061A  0E03     MOVLW 0x3
061C  BEDB     BTFSC PLUSW2, 7, ACCESS
061E  D002     BRA 0x624
0620  92DB     BCF PLUSW2, 1, ACCESS
0622  94DB     BCF PLUSW2, 2, ACCESS
0624  50DB     MOVF PLUSW2, W, ACCESS
0626  0B80     ANDLW 0x80
0628  E024     BZ 0x672
062A  DA8A     RCALL __pa_24
062C  90D8     BCF STATUS, 0, ACCESS
062E  0E03     MOVLW 0x3
0630  50EB     MOVF PLUSW0, W, ACCESS
0632  0A00     XORLW 0x0
0634  E608     BN 0x646
0636  0E00     MOVLW 0x0
0638  5CEE     SUBWF POSTINC0, W, ACCESS
063A  0E00     MOVLW 0x0
063C  58EE     SUBWFB POSTINC0, W, ACCESS
063E  0E00     MOVLW 0x0
0640  58EE     SUBWFB POSTINC0, W, ACCESS
0642  0E00     MOVLW 0x0
0644  58EE     SUBWFB POSTINC0, W, ACCESS
0646  E215     BC 0x672
0B40  50D9     MOVF FSR2, W, ACCESS
0B42  0F0A     ADDLW 0xA
0B44  EF34     GOTO 0xC68
0B46  F006     NOP
0C68  6EE9     MOVWF FSR0, ACCESS
0C6A  0E00     MOVLW 0x0
0C6C  20DA     ADDWFC FSR2H, W, ACCESS
0C6E  6EEA     MOVWF FSR0H, ACCESS
0C70  0012     RETURN 0
0648  DA13     RCALL __pa_12
064A  680B     SETF 0xB, ACCESS
064C  680C     SETF 0xC, ACCESS
064E  680D     SETF 0xD, ACCESS
0650  680E     SETF romstring, ACCESS
0652  ECE5     CALL 0x2BCA, 0
0654  F015     NOP
0656  0E0A     MOVLW 0xA
0658  C002     MOVFF total_temperature, PLUSW2
065A  FFDB     NOP
065C  0E0B     MOVLW 0xB
065E  C003     MOVFF flags, PLUSW2
0660  FFDB     NOP
0662  0E0C     MOVLW 0xC
0664  C004     MOVFF average_temperature, PLUSW2
0666  FFDB     NOP
0668  0E0D     MOVLW 0xD
066A  C005     MOVFF precision, PLUSW2
066C  FFDB     NOP
0A70  0E0A     MOVLW 0xA
0A72  CFDB     MOVFF PLUSW2, have_precision
0A74  F006     NOP
0A76  0E0B     MOVLW 0xB
0A78  CFDB     MOVFF PLUSW2, size
0A7A  F007     NOP
0A7C  0E0C     MOVLW 0xC
0A7E  CFDB     MOVFF PLUSW2, count
0A80  F008     NOP
0A82  0E0D     MOVLW 0xD
0A84  CFDB     MOVFF PLUSW2, cval
0A86  F009     NOP
0A88  0012     RETURN 0
066E  0E2D     MOVLW 0x2D
0670  D008     BRA 0x682
0672  0E03     MOVLW 0x3
0674  A2DB     BTFSS PLUSW2, 1, ACCESS
0676  D002     BRA 0x67C
0678  0E2B     MOVLW 0x2B
067A  D003     BRA 0x682
067C  A4DB     BTFSS PLUSW2, 2, ACCESS
067E  D008     BRA 0x690
0680  0E20     MOVLW 0x20
0682  6EF3     MOVWF PROD, ACCESS
0684  0E17     MOVLW 0x17
0686  CFF3     MOVFF PROD, PLUSW2
0688  FFDB     NOP
068A  0E15     MOVLW 0x15
068C  2ADB     INCF PLUSW2, F, ACCESS
068E  D002     BRA 0x694
0690  0E17     MOVLW 0x17
0692  6ADB     CLRF PLUSW2, ACCESS
0694  0E05     MOVLW 0x5
0696  50DB     MOVF PLUSW2, W, ACCESS
0698  E103     BNZ 0x6A0
069A  D9B7     RCALL __pa_8
069C  E101     BNZ 0x6A0
069E  D089     BRA 0x7B2
0A0A  0E0A     MOVLW 0xA
0A0C  CFDB     MOVFF PLUSW2, __tmp_0
0A0E  F014     NOP
0A10  0E0B     MOVLW 0xB
0A12  CFDB     MOVFF PLUSW2, digit_cnt
0A14  F015     NOP
0A16  0E0C     MOVLW 0xC
0A18  CFDB     MOVFF PLUSW2, prefix_cnt
0A1A  F016     NOP
0A1C  0E0D     MOVLW 0xD
0A1E  CFDB     MOVFF PLUSW2, sign_char
0A20  F017     NOP
0A22  5014     MOVF __tmp_0, W, ACCESS
0A24  1015     IORWF digit_cnt, W, ACCESS
0A26  1016     IORWF prefix_cnt, W, ACCESS
0A28  1017     IORWF sign_char, W, ACCESS
0A2A  0012     RETURN 0
06A0  0E6A     MOVLW 0x6A
06A2  6E14     MOVWF __tmp_0, ACCESS
06A4  0E32     MOVLW 0x32
06A6  6E15     MOVWF digit_cnt, ACCESS
06A8  0E00     MOVLW 0x0
06AA  6E16     MOVWF prefix_cnt, ACCESS
06AC  0E07     MOVLW 0x7
06AE  CFDB     MOVFF PLUSW2, sign_char
06B0  F017     NOP
06B2  6A18     CLRF buf, ACCESS
06B4  6A19     CLRF 0x19, ACCESS
06B6  6A1A     CLRF 0x1A, ACCESS
06B8  C017     MOVFF sign_char, 0xB
06BA  F00B     NOP
06BC  C018     MOVFF buf, 0xC
06BE  F00C     NOP
06C0  C019     MOVFF 0x19, 0xD
06C2  F00D     NOP
06C4  C01A     MOVFF 0x1A, romstring
06C6  F00E     NOP
06C8  D9D3     RCALL __pa_12
06CA  EC61     CALL 0x2EC2, 0
06CC  F017     NOP
06CE  5014     MOVF __tmp_0, W, ACCESS
06D0  2402     ADDWF total_temperature, W, ACCESS
06D2  6EF3     MOVWF PROD, ACCESS
06D4  5015     MOVF digit_cnt, W, ACCESS
06D6  2003     ADDWFC flags, W, ACCESS
06D8  6EF4     MOVWF PRODH, ACCESS
06DA  5016     MOVF prefix_cnt, W, ACCESS
06DC  2004     ADDWFC average_temperature, W, ACCESS
06DE  6EF8     MOVWF TBLPTRU, ACCESS
06E0  CFF4     MOVFF PRODH, TBLPTRH
06E2  FFF7     NOP
06E4  CFF3     MOVFF PROD, TBLPTR
06E6  FFF6     NOP
06E8  0008     TBLRD*
06EA  0E09     MOVLW 0x9
06EC  CFF5     MOVFF TABLAT, PLUSW2
06EE  FFDB     NOP
06F0  0E58     MOVLW 0x58
06F2  5CDF     SUBWF INDF2, W, ACCESS
06F4  E10F     BNZ 0x714
06F6  0E61     MOVLW 0x61
06F8  6EF3     MOVWF PROD, ACCESS
06FA  0E09     MOVLW 0x9
06FC  D97B     RCALL __pa_6
06FE  E30A     BNC 0x714
09F4  CFDB     MOVFF PLUSW2, PRODH
09F6  FFF4     NOP
09F8  50F3     MOVF PROD, W, ACCESS
09FA  5CF4     SUBWF PRODH, W, ACCESS
09FC  0012     RETURN 0
0700  0E20     MOVLW 0x20
0702  6E14     MOVWF __tmp_0, ACCESS
0704  0E09     MOVLW 0x9
0706  CFDB     MOVFF PLUSW2, INDF1
0708  FFE7     NOP
070A  5014     MOVF __tmp_0, W, ACCESS
070C  5EE7     SUBWF INDF1, F, ACCESS
070E  0E09     MOVLW 0x9
0710  CFE7     MOVFF INDF1, PLUSW2
0712  FFDB     NOP
0714  0E07     MOVLW 0x7
0716  CFDB     MOVFF PLUSW2, __tmp_0
0718  F014     NOP
071A  6A15     CLRF digit_cnt, ACCESS
071C  6A16     CLRF prefix_cnt, ACCESS
071E  6A17     CLRF sign_char, ACCESS
0720  DA0F     RCALL __pa_24
0722  C014     MOVFF __tmp_0, 0xB
0724  F00B     NOP
0726  C015     MOVFF digit_cnt, 0xC
0728  F00C     NOP
072A  C016     MOVFF prefix_cnt, 0xD
072C  F00D     NOP
072E  C017     MOVFF sign_char, romstring
0730  F00E     NOP
0732  CFEE     MOVFF POSTINC0, have_precision
0734  F006     NOP
0736  CFEE     MOVFF POSTINC0, size
0738  F007     NOP
073A  CFEE     MOVFF POSTINC0, count
073C  F008     NOP
073E  CFEF     MOVFF INDF0, cval
0740  F009     NOP
0742  EC61     CALL 0x2EC2, 0
0744  F017     NOP
0746  C009     MOVFF cval, POSTDEC0
0748  FFED     NOP
074A  C008     MOVFF count, POSTDEC0
074C  FFED     NOP
074E  C007     MOVFF size, POSTDEC0
0750  FFED     NOP
0752  C006     MOVFF have_precision, INDF0
0754  FFEF     NOP
0756  0E39     MOVLW 0x39
0758  CFDB     MOVFF PLUSW2, FSR0
075A  FFE9     NOP
075C  06DB     DECF PLUSW2, F, ACCESS
075E  0E3A     MOVLW 0x3A
0760  CFDB     MOVFF PLUSW2, FSR0H
0762  FFEA     NOP
0764  E201     BC 0x768
0766  06DB     DECF PLUSW2, F, ACCESS
0768  0E09     MOVLW 0x9
076A  CFDB     MOVFF PLUSW2, INDF0
076C  FFEF     NOP
076E  0E15     MOVLW 0x15
0770  2ADB     INCF PLUSW2, F, ACCESS
0772  D94B     RCALL __pa_8
0774  E195     BNZ 0x6A0
0776  0E03     MOVLW 0x3
0778  A6DB     BTFSS PLUSW2, 3, ACCESS
077A  D01D     BRA 0x7B6
077C  0E6F     MOVLW 0x6F
077E  5CDF     SUBWF INDF2, W, ACCESS
0780  E106     BNZ 0x78E
0782  D9C1     RCALL __pa_20
0784  E318     BNC 0x7B6
0B06  0E05     MOVLW 0x5
0B08  CFDB     MOVFF PLUSW2, __tmp_0
0B0A  F014     NOP
0B0C  0E15     MOVLW 0x15
0B0E  50DB     MOVF PLUSW2, W, ACCESS
0B10  80D8     BSF STATUS, 0, ACCESS
0B12  5414     SUBFWB __tmp_0, W, ACCESS
0B14  0012     RETURN 0
0786  0E15     MOVLW 0x15
0788  28DB     INCF PLUSW2, W, ACCESS
078A  DA5B     RCALL __pa_42
078C  D014     BRA 0x7B6
078E  0E78     MOVLW 0x78
0790  5CDF     SUBWF INDF2, W, ACCESS
0792  E009     BZ 0x7A6
0794  0E58     MOVLW 0x58
0796  5CDF     SUBWF INDF2, W, ACCESS
0798  E006     BZ 0x7A6
079A  0E62     MOVLW 0x62
079C  5CDF     SUBWF INDF2, W, ACCESS
079E  E003     BZ 0x7A6
07A0  0E42     MOVLW 0x42
07A2  5CDF     SUBWF INDF2, W, ACCESS
07A4  E108     BNZ 0x7B6
07A6  0E02     MOVLW 0x2
07A8  6EF3     MOVWF PROD, ACCESS
07AA  0E16     MOVLW 0x16
07AC  CFF3     MOVFF PROD, PLUSW2
07AE  FFDB     NOP
07B0  D002     BRA 0x7B6
07B2  0E15     MOVLW 0x15
07B4  6ADB     CLRF PLUSW2, ACCESS
07B6  0E03     MOVLW 0x3
07B8  50DB     MOVF PLUSW2, W, ACCESS
07BA  0B10     ANDLW 0x10
07BE  0E04     MOVLW 0x4
07C0  CFDB     MOVFF PLUSW2, __tmp_0
07C2  F014     NOP
07C4  0E05     MOVLW 0x5
07C6  50DB     MOVF PLUSW2, W, ACCESS
07C8  80D8     BSF STATUS, 0, ACCESS
07CA  5414     SUBFWB __tmp_0, W, ACCESS
07BC  E00E     BZ 0x7DA
07CC  E206     BC 0x7DA
07CE  0E06     MOVLW 0x6
07D0  50DB     MOVF PLUSW2, W, ACCESS
07D2  E103     BNZ 0x7DA
07D4  0E04     MOVLW 0x4
07D6  50DB     MOVF PLUSW2, W, ACCESS
07D8  DA34     RCALL __pa_42
07DA  D995     RCALL __pa_20
07DC  E20A     BC 0x7F2
07DE  0E05     MOVLW 0x5
07E0  CFDB     MOVFF PLUSW2, INDF1
07E2  FFE7     NOP
07E4  0E15     MOVLW 0x15
07E6  50DB     MOVF PLUSW2, W, ACCESS
07E8  5EE7     SUBWF INDF1, F, ACCESS
07EA  0E05     MOVLW 0x5
07EC  CFE7     MOVFF INDF1, PLUSW2
07EE  FFDB     NOP
07F0  D002     BRA 0x7F6
07F2  0E05     MOVLW 0x5
07F4  6ADB     CLRF PLUSW2, ACCESS
07F6  0E04     MOVLW 0x4
07F8  CFDB     MOVFF PLUSW2, __tmp_0
07FA  F014     NOP
07FC  0E16     MOVLW 0x16
07FE  D945     RCALL __pa_13
0800  80D8     BSF STATUS, 0, ACCESS
0802  5414     SUBFWB __tmp_0, W, ACCESS
0804  E214     BC 0x82E
0A8A  CFDB     MOVFF PLUSW2, POSTINC1
0A8C  FFE6     NOP
0A8E  0E15     MOVLW 0x15
0A90  CFDB     MOVFF PLUSW2, POSTINC1
0A92  FFE6     NOP
0A94  0E05     MOVLW 0x5
0A96  50DB     MOVF PLUSW2, W, ACCESS
0A98  52E5     MOVF POSTDEC1, F, ACCESS
0A9A  24E7     ADDWF INDF1, W, ACCESS
0A9C  52E5     MOVF POSTDEC1, F, ACCESS
0A9E  24E7     ADDWF INDF1, W, ACCESS
0AA0  0012     RETURN 0
0806  0E16     MOVLW 0x16
0808  CFDB     MOVFF PLUSW2, POSTINC1
080A  FFE6     NOP
080C  0E15     MOVLW 0x15
080E  CFDB     MOVFF PLUSW2, POSTINC1
0810  FFE6     NOP
0812  0E04     MOVLW 0x4
0814  CFDB     MOVFF PLUSW2, POSTINC1
0816  FFE6     NOP
0818  0E05     MOVLW 0x5
081A  50DB     MOVF PLUSW2, W, ACCESS
081C  52E5     MOVF POSTDEC1, F, ACCESS
081E  5CE7     SUBWF INDF1, W, ACCESS
0820  52E5     MOVF POSTDEC1, F, ACCESS
0822  80D8     BSF STATUS, 0, ACCESS
0824  54E7     SUBFWB INDF1, W, ACCESS
0826  52E5     MOVF POSTDEC1, F, ACCESS
0828  80D8     BSF STATUS, 0, ACCESS
082A  54E7     SUBFWB INDF1, W, ACCESS
082C  D95F     RCALL __pa_18
082E  0E03     MOVLW 0x3
0830  50DB     MOVF PLUSW2, W, ACCESS
0832  0B01     ANDLW 0x1
0834  E10B     BNZ 0x84C
0836  0E08     MOVLW 0x8
0838  50DB     MOVF PLUSW2, W, ACCESS
083A  E008     BZ 0x84C
083C  D8B2     RCALL __pa_2
083E  E001     BZ 0x842
0840  D08D     BRA 0x95C
0842  0E08     MOVLW 0x8
0844  50DB     MOVF PLUSW2, W, ACCESS
0846  D8BE     RCALL __pa_4
0848  0E08     MOVLW 0x8
084A  6ADB     CLRF PLUSW2, ACCESS
084C  0E17     MOVLW 0x17
084E  50DB     MOVF PLUSW2, W, ACCESS
0850  E007     BZ 0x860
0852  D988     RCALL __pa_28
0854  0E17     MOVLW 0x17
0856  D9F1     RCALL __pa_41
0858  E103     BNZ 0x860
085A  1C15     COMF digit_cnt, W, ACCESS
085C  E101     BNZ 0x860
085E  D07E     BRA 0x95C
0860  0E16     MOVLW 0x16
0862  50DB     MOVF PLUSW2, W, ACCESS
0864  E016     BZ 0x892
0866  D97E     RCALL __pa_28
0868  0E30     MOVLW 0x30
086A  6EE6     MOVWF POSTINC1, ACCESS
086C  D89F     RCALL __pa_3
086E  E102     BNZ 0x874
0870  1C15     COMF digit_cnt, W, ACCESS
0872  E074     BZ 0x95C
0874  D977     RCALL __pa_28
0876  CFDF     MOVFF INDF2, POSTINC1
0878  FFE6     NOP
087A  ECA3     CALL 0x2B46, 0
087C  F015     NOP
087E  52E5     MOVF POSTDEC1, F, ACCESS
0880  52E5     MOVF POSTDEC1, F, ACCESS
0882  52E5     MOVF POSTDEC1, F, ACCESS
0884  CFF4     MOVFF PRODH, digit_cnt
0886  F015     NOP
0888  0100     MOVLB 0x0
088A  1CF3     COMF PROD, W, ACCESS
088C  E102     BNZ 0x892
088E  1C15     COMF digit_cnt, W, ACCESS
0890  E065     BZ 0x95C
0892  0E05     MOVLW 0x5
0894  CFDB     MOVFF PLUSW2, __tmp_0
0896  F014     NOP
0898  0E16     MOVLW 0x16
089A  50DB     MOVF PLUSW2, W, ACCESS
089C  80D8     BSF STATUS, 0, ACCESS
089E  5414     SUBFWB __tmp_0, W, ACCESS
08A0  E209     BC 0x8B4
08A2  0E05     MOVLW 0x5
08A4  CFDB     MOVFF PLUSW2, INDF1
08A6  FFE7     NOP
08A8  0E16     MOVLW 0x16
08AA  50DB     MOVF PLUSW2, W, ACCESS
08AC  5EE7     SUBWF INDF1, F, ACCESS
08AE  0E05     MOVLW 0x5
08B0  CFE7     MOVFF INDF1, PLUSW2
08B2  FFDB     NOP
08B4  0E30     MOVLW 0x30
08B6  6EE6     MOVWF POSTINC1, ACCESS
08B8  0E05     MOVLW 0x5
08BA  D9CB     RCALL __pa_44
08BC  E14F     BNZ 0x95C
0C04  EC28     CALL 0x50, 0
0C06  F000     NOP
0C08  52E5     MOVF POSTDEC1, F, ACCESS
0C0A  52E5     MOVF POSTDEC1, F, ACCESS
0C0C  52E5     MOVF POSTDEC1, F, ACCESS
0C0E  52E5     MOVF POSTDEC1, F, ACCESS
0C10  0900     IORLW 0x0
0C12  0012     RETURN 0
0C52  CFDB     MOVFF PLUSW2, POSTINC1
0C54  FFE6     NOP
0C56  DF86     RCALL __pa_28
0C58  EF02     GOTO 0xC04
0C5A  F006     NOP
08BE  0E39     MOVLW 0x39
08C0  2ADB     INCF PLUSW2, F, ACCESS
08C2  CFDB     MOVFF PLUSW2, FSR0
08C4  FFE9     NOP
08C6  0E3A     MOVLW 0x3A
08C8  E301     BNC 0x8CC
08CA  2ADB     INCF PLUSW2, F, ACCESS
08CC  CFDB     MOVFF PLUSW2, FSR0H
08CE  FFEA     NOP
08D0  0E09     MOVLW 0x9
08D2  CFEF     MOVFF INDF0, PLUSW2
08D4  FFDB     NOP
08D6  50DB     MOVF PLUSW2, W, ACCESS
08D8  E00E     BZ 0x8F6
08E6  0E39     MOVLW 0x39
08E8  2ADB     INCF PLUSW2, F, ACCESS
08EA  CFDB     MOVFF PLUSW2, FSR0
08EC  FFE9     NOP
08EE  0E3A     MOVLW 0x3A
08F0  E3ED     BNC 0x8CC
08F2  2ADB     INCF PLUSW2, F, ACCESS
08F4  D7EB     BRA 0x8CC
08DA  D944     RCALL __pa_28
08DC  0E09     MOVLW 0x9
08DE  D9AD     RCALL __pa_41
08E0  E102     BNZ 0x8E6
08E2  1C15     COMF digit_cnt, W, ACCESS
08E4  E03B     BZ 0x95C
0C3A  CFDB     MOVFF PLUSW2, POSTINC1
0C3C  FFE6     NOP
0C3E  EFD6     GOTO 0x9AC
0C40  F004     NOP
08F6  D855     RCALL __pa_2
08F8  E131     BNZ 0x95C
09A2  0E20     MOVLW 0x20
09A4  6EE6     MOVWF POSTINC1, ACCESS
09A6  0E08     MOVLW 0x8
09A8  EF29     GOTO 0xC52
09AA  F006     NOP
0B64  0EFC     MOVLW 0xFC
0B66  CFDB     MOVFF PLUSW2, POSTINC1
0B68  FFE6     NOP
0B6A  0EFD     MOVLW 0xFD
0B6C  CFDB     MOVFF PLUSW2, POSTINC1
0B6E  FFE6     NOP
0B70  0012     RETURN 0
08FA  0E16     MOVLW 0x16
08FC  CFDB     MOVFF PLUSW2, POSTINC1
08FE  FFE6     NOP
0900  0E08     MOVLW 0x8
0902  D8C3     RCALL __pa_13
0904  52E5     MOVF POSTDEC1, F, ACCESS
0906  24E7     ADDWF INDF1, W, ACCESS
0908  D85D     RCALL __pa_4
09C4  6E14     MOVWF __tmp_0, ACCESS
09C6  6A15     CLRF digit_cnt, ACCESS
09C8  50D9     MOVF FSR2, W, ACCESS
09CA  0F01     ADDLW 0x1
09CC  D94D     RCALL __pa_46
09CE  5014     MOVF __tmp_0, W, ACCESS
09D0  26EE     ADDWF POSTINC0, F, ACCESS
09D2  5015     MOVF digit_cnt, W, ACCESS
09D4  22ED     ADDWFC POSTDEC0, F, ACCESS
09D6  0012     RETURN 0
090A  D02E     BRA 0x968
090C  0E07     MOVLW 0x7
090E  50DB     MOVF PLUSW2, W, ACCESS
0910  0A03     XORLW 0x3
0912  E01C     BZ 0x94C
0914  0A01     XORLW 0x1
0916  E014     BZ 0x940
0918  0A03     XORLW 0x3
091A  E007     BZ 0x92A
092A  D8F5     RCALL __pa_21
092C  6A19     CLRF 0x19, ACCESS
092E  AE17     BTFSS sign_char, 7, ACCESS
0930  D002     BRA 0x936
0932  6818     SETF buf, ACCESS
0934  6819     SETF 0x19, ACCESS
0936  D82C     RCALL __pa_0
0938  D8BC     RCALL __pa_15
093A  C019     MOVFF 0x19, POSTINC0
093C  FFEE     NOP
0AB2  50EE     MOVF POSTINC0, W, ACCESS
0AB4  CFEF     MOVFF INDF0, FSR0H
0AB6  FFEA     NOP
0AB8  6EE9     MOVWF FSR0, ACCESS
0ABA  C016     MOVFF prefix_cnt, POSTINC0
0ABC  FFEE     NOP
0ABE  C017     MOVFF sign_char, POSTINC0
0AC0  FFEE     NOP
0AC2  C018     MOVFF buf, POSTINC0
0AC4  FFEE     NOP
0AC6  0012     RETURN 0
0B16  0E01     MOVLW 0x1
0B18  CFDB     MOVFF PLUSW2, prefix_cnt
0B1A  F016     NOP
0B1C  0E02     MOVLW 0x2
0B1E  CFDB     MOVFF PLUSW2, sign_char
0B20  F017     NOP
0B22  6A18     CLRF buf, ACCESS
0B24  0012     RETURN 0
093E  D014     BRA 0x968
0940  D8EA     RCALL __pa_21
0942  BE17     BTFSC sign_char, 7, ACCESS
0944  6818     SETF buf, ACCESS
0946  D824     RCALL __pa_0
0948  D8B4     RCALL __pa_15
094A  D00E     BRA 0x968
094C  D963     RCALL __pa_38
094E  CFDB     MOVFF PLUSW2, INDF0
0950  FFEF     NOP
0952  D00A     BRA 0x968
091C  D97B     RCALL __pa_38
091E  CFDB     MOVFF PLUSW2, POSTINC0
0920  FFEE     NOP
0922  0E02     MOVLW 0x2
0924  CFDB     MOVFF PLUSW2, POSTDEC0
0926  FFED     NOP
0C14  DEBD     RCALL __pa_0
0C16  50EE     MOVF POSTINC0, W, ACCESS
0C18  CFEF     MOVFF INDF0, FSR0H
0C1A  FFEA     NOP
0C1C  6EE9     MOVWF FSR0, ACCESS
0C1E  0E01     MOVLW 0x1
0C20  0012     RETURN 0
0928  D01F     BRA 0x968
0954  D97B     RCALL __pa_43
0956  E105     BNZ 0x962
0958  1C15     COMF digit_cnt, W, ACCESS
095A  E103     BNZ 0x962
09AC  ECA3     CALL 0x2B46, 0
09AE  F015     NOP
09B0  52E5     MOVF POSTDEC1, F, ACCESS
09B2  52E5     MOVF POSTDEC1, F, ACCESS
09B4  52E5     MOVF POSTDEC1, F, ACCESS
09B6  CFF3     MOVFF PROD, __tmp_0
09B8  F014     NOP
09BA  CFF4     MOVFF PRODH, digit_cnt
09BC  F015     NOP
09BE  0100     MOVLB 0x0
09C0  1CF3     COMF PROD, W, ACCESS
09C2  0012     RETURN 0
0BF2  CFDF     MOVFF INDF2, POSTINC1
0BF4  FFE6     NOP
0BF6  EFD6     GOTO 0x9AC
0BF8  F004     NOP
0C4C  DF8B     RCALL __pa_28
0C4E  EFF9     GOTO 0xBF2
0C50  F005     NOP
095C  68F3     SETF PROD, ACCESS
095E  68F4     SETF PRODH, ACCESS
0960  D010     BRA 0x982
0962  D8FC     RCALL __pa_27
0964  E301     BNC 0x968
0966  2ADB     INCF PLUSW2, F, ACCESS
0B5C  0E01     MOVLW 0x1
0B5E  2ADB     INCF PLUSW2, F, ACCESS
0B60  0E02     MOVLW 0x2
0B62  0012     RETURN 0
096E  0E01     MOVLW 0x1
0970  CFDB     MOVFF PLUSW2, __tmp_0
0972  F014     NOP
0974  0E02     MOVLW 0x2
0976  CFDB     MOVFF PLUSW2, digit_cnt
0978  F015     NOP
097A  C014     MOVFF __tmp_0, PROD
097C  FFF3     NOP
097E  C015     MOVFF digit_cnt, PRODH
0980  FFF4     NOP
0982  0E3B     MOVLW 0x3B
0984  5CE1     SUBWF FSR1, W, ACCESS
0986  E202     BC 0x98C
0988  6AE1     CLRF FSR1, ACCESS
098A  52E5     MOVF POSTDEC1, F, ACCESS
098C  6EE1     MOVWF FSR1, ACCESS
098E  D0CB     BRA __pa_22
---  E:/3.46/pic18-lt/cxx-framework/src/traditional/stdclib/strlen.asm  ---------------------------------
2AE0  0EFE     MOVLW 0xFE
2AE2  CFE3     MOVFF PLUSW1, FSR0
2AE4  FFE9     NOP
2AE6  0EFF     MOVLW 0xFF
2AE8  CFE3     MOVFF PLUSW1, FSR0H
2AEA  FFEA     NOP
2AEC  6AF3     CLRF PROD, ACCESS
2AEE  6AF4     CLRF PRODH, ACCESS
2AF0  52EE     MOVF POSTINC0, F, ACCESS
2AF2  E003     BZ jEnd
2AF4  4AF3     INFSNZ PROD, F, ACCESS
2AF6  2AF4     INCF PRODH, F, ACCESS
2AF8  D7FB     BRA jLoop
2AFA  0012     RETURN 0
---  E:/3.46/pic18-lt/cxx-framework/src/traditional/stdclib/sprintf.c  ----------------------------------
28BE  CFD9     MOVFF FSR2, POSTINC1
28C0  FFE6     NOP
28C2  CFDA     MOVFF FSR2H, POSTINC1
28C4  FFE6     NOP
28C6  CFE1     MOVFF FSR1, FSR2
28C8  FFD9     NOP
28CA  CFE2     MOVFF FSR1H, FSR2H
28CC  FFDA     NOP
28CE  52E6     MOVF POSTINC1, F, ACCESS
28D0  52E6     MOVF POSTINC1, F, ACCESS
28D2  52E6     MOVF POSTINC1, F, ACCESS
28D4  52E6     MOVF POSTINC1, F, ACCESS
28D6  50D9     MOVF FSR2, W, ACCESS
28D8  0FF9     ADDLW 0xF9
28DA  6E14     MOVWF __tmp_0, ACCESS
28DC  0EFF     MOVLW 0xFF
28DE  20DA     ADDWFC FSR2H, W, ACCESS
28E0  6E15     MOVWF digit_cnt, ACCESS
28E2  0E02     MOVLW 0x2
28E4  C014     MOVFF __tmp_0, PLUSW2
28E6  FFDB     NOP
28E8  0E03     MOVLW 0x3
28EA  C015     MOVFF digit_cnt, PLUSW2
28EC  FFDB     NOP
28EE  0E02     MOVLW 0x2
28F0  CFDB     MOVFF PLUSW2, POSTINC1
28F2  FFE6     NOP
28F4  0E03     MOVLW 0x3
28F6  CFDB     MOVFF PLUSW2, POSTINC1
28F8  FFE6     NOP
28FA  0EF9     MOVLW 0xF9
28FC  CFDB     MOVFF PLUSW2, POSTINC1
28FE  FFE6     NOP
2900  0EFA     MOVLW 0xFA
2902  CFDB     MOVFF PLUSW2, POSTINC1
2904  FFE6     NOP
2906  0EFB     MOVLW 0xFB
2908  CFDB     MOVFF PLUSW2, POSTINC1
290A  FFE6     NOP
290C  50D9     MOVF FSR2, W, ACCESS
290E  0FFC     ADDLW 0xFC
2910  6EE6     MOVWF POSTINC1, ACCESS
2912  0EFF     MOVLW 0xFF
2914  20DA     ADDWFC FSR2H, W, ACCESS
2916  6EE6     MOVWF POSTINC1, ACCESS
2918  EC3E     CALL 0x7C, 0
291A  F000     NOP
291C  6E14     MOVWF __tmp_0, ACCESS
291E  0E07     MOVLW 0x7
2920  5CE1     SUBWF FSR1, W, ACCESS
2922  E202     BC 0x2928
2924  6AE1     CLRF FSR1, ACCESS
2926  52E5     MOVF POSTDEC1, F, ACCESS
2928  6EE1     MOVWF FSR1, ACCESS
292A  5014     MOVF __tmp_0, W, ACCESS
292C  CFF3     MOVFF PROD, POSTINC2
292E  FFDE     NOP
2930  CFF4     MOVFF PRODH, POSTDEC2
2932  FFDD     NOP
2934  0EFC     MOVLW 0xFC
2936  CFDB     MOVFF PLUSW2, FSR0
2938  FFE9     NOP
293A  0EFD     MOVLW 0xFD
293C  CFDB     MOVFF PLUSW2, FSR0H
293E  FFEA     NOP
2940  6AEF     CLRF INDF0, ACCESS
2942  CFDE     MOVFF POSTINC2, __tmp_0
2944  F014     NOP
2946  CFDD     MOVFF POSTDEC2, digit_cnt
2948  F015     NOP
294A  C014     MOVFF __tmp_0, PROD
294C  FFF3     NOP
294E  C015     MOVFF digit_cnt, PRODH
2950  FFF4     NOP
2952  0E04     MOVLW 0x4
2954  5CE1     SUBWF FSR1, W, ACCESS
2956  E202     BC 0x295C
2958  6AE1     CLRF FSR1, ACCESS
295A  52E5     MOVF POSTDEC1, F, ACCESS
295C  6EE1     MOVWF FSR1, ACCESS
295E  52E5     MOVF POSTDEC1, F, ACCESS
2960  CFE5     MOVFF POSTDEC1, FSR2H
2962  FFDA     NOP
2964  CFE7     MOVFF INDF1, FSR2
2966  FFD9     NOP
2968  0012     RETURN 0
---  E:/3.46/pic18-lt/cxx-framework/src/traditional/stdclib/slenpgm.asm  --------------------------------
2AFC  0EFF     MOVLW 0xFF
2AFE  CFE3     MOVFF PLUSW1, TBLPTRU
2B00  FFF8     NOP
2B02  52E5     MOVF POSTDEC1, F, ACCESS
2B04  0EFF     MOVLW 0xFF
2B06  CFE3     MOVFF PLUSW1, TBLPTRH
2B08  FFF7     NOP
2B0A  52E5     MOVF POSTDEC1, F, ACCESS
2B0C  0EFF     MOVLW 0xFF
2B0E  CFE3     MOVFF PLUSW1, TBLPTR
2B10  FFF6     NOP
2B12  52E5     MOVF POSTDEC1, F, ACCESS
2B14  6AE6     CLRF POSTINC1, ACCESS
2B16  6AE6     CLRF POSTINC1, ACCESS
2B18  6AE6     CLRF POSTINC1, ACCESS
2B1A  0009     TBLRD*+
2B1C  52F5     MOVF TABLAT, F, ACCESS
2B1E  E009     BZ jEnd
2B20  0EFD     MOVLW 0xFD
2B22  2AE3     INCF PLUSW1, F, ACCESS
2B24  E105     BNZ _2jEnd
2B26  0EFE     MOVLW 0xFE
2B28  2AE3     INCF PLUSW1, F, ACCESS
2B2A  E102     BNZ _2jEnd
2B2C  0EFF     MOVLW 0xFF
2B2E  2AE3     INCF PLUSW1, F, ACCESS
2B30  D7F4     BRA jLoop
2B32  0EFD     MOVLW 0xFD
2B34  CFE3     MOVFF PLUSW1, size
2B36  F007     NOP
2B38  0EFE     MOVLW 0xFE
2B3A  CFE3     MOVFF PLUSW1, count
2B3C  F008     NOP
2B3E  0EFF     MOVLW 0xFF
2B40  CFE3     MOVFF PLUSW1, cval
2B42  F009     NOP
2B44  0012     RETURN 0
---  E:/3.46/pic18-lt/cxx-framework/src/traditional/stdclib/putc.c  -------------------------------------
2B46  CFD9     MOVFF FSR2, POSTINC1
2B48  FFE6     NOP
2B4A  CFDA     MOVFF FSR2H, POSTINC1
2B4C  FFE6     NOP
2B4E  CFE1     MOVFF FSR1, FSR2
2B50  FFD9     NOP
2B52  CFE2     MOVFF FSR1H, FSR2H
2B54  FFDA     NOP
2B56  0EFB     MOVLW 0xFB
2B58  CFDB     MOVFF PLUSW2, __tmp_0
2B5A  F014     NOP
2B5C  0EFC     MOVLW 0xFC
2B5E  CFDB     MOVFF PLUSW2, digit_cnt
2B60  F015     NOP
2B62  0100     MOVLB 0x0
2B64  0E80     MOVLW 0x80
2B66  1415     ANDWF digit_cnt, W, ACCESS
2B68  E11A     BNZ 0x2B9E
2B6A  0EFB     MOVLW 0xFB
2B6C  CFDB     MOVFF PLUSW2, FSR0
2B6E  FFE9     NOP
2B70  0EFC     MOVLW 0xFC
2B72  CFDB     MOVFF PLUSW2, FSR0H
2B74  FFEA     NOP
2B76  CFEE     MOVFF POSTINC0, PROD
2B78  FFF3     NOP
2B7A  CFED     MOVFF POSTDEC0, PRODH
2B7C  FFF4     NOP
2B7E  2AEE     INCF POSTINC0, F, ACCESS
2B80  0E00     MOVLW 0x0
2B82  22EF     ADDWFC INDF0, F, ACCESS
2B84  CFF3     MOVFF PROD, FSR0
2B86  FFE9     NOP
2B88  CFF4     MOVFF PRODH, FSR0H
2B8A  FFEA     NOP
2B8C  0EFD     MOVLW 0xFD
2B8E  CFDB     MOVFF PLUSW2, INDF0
2B90  FFEF     NOP
2B92  50EF     MOVF INDF0, W, ACCESS
2B94  6A15     CLRF digit_cnt, ACCESS
2B96  6EF3     MOVWF PROD, ACCESS
2B98  C015     MOVFF digit_cnt, PRODH
2B9A  FFF4     NOP
2B9C  D010     BRA 0x2BBE
2B9E  0EFB     MOVLW 0xFB
2BA0  50DB     MOVF PLUSW2, W, ACCESS
2BA2  08FE     SUBLW 0xFE
2BA4  E106     BNZ 0x2BB2
2BA6  0EFD     MOVLW 0xFD
2BA8  CFDB     MOVFF PLUSW2, POSTINC1
2BAA  FFE6     NOP
2BAC  EC1C     CALL 0x3238, 0
2BAE  F019     NOP
2BB0  D005     BRA 0x2BBC
2BB2  0EFD     MOVLW 0xFD
2BB4  CFDB     MOVFF PLUSW2, POSTINC1
2BB6  FFE6     NOP
2BB8  EC03     CALL 0x6, 0
2BBA  F000     NOP
2BBC  52E5     MOVF POSTDEC1, F, ACCESS
2BBE  52E5     MOVF POSTDEC1, F, ACCESS
2BC0  CFE5     MOVFF POSTDEC1, FSR2H
2BC2  FFDA     NOP
2BC4  CFE7     MOVFF INDF1, FSR2
2BC6  FFD9     NOP
2BC8  0012     RETURN 0
---  E:/3.46/pic18-lt/cxx-framework/src/traditional/stdclib/memset.asm  ---------------------------------
2AAC  0EFE     MOVLW 0xFE
2AAE  CFE3     MOVFF PLUSW1, FSR0
2AB0  FFE9     NOP
2AB2  0EFF     MOVLW 0xFF
2AB4  CFE3     MOVFF PLUSW1, FSR0H
2AB6  FFEA     NOP
2AB8  CFE9     MOVFF FSR0, PROD
2ABA  FFF3     NOP
2ABC  CFEA     MOVFF FSR0H, PRODH
2ABE  FFF4     NOP
2AC0  0EFB     MOVLW 0xFB
2AC2  50E3     MOVF PLUSW1, W, ACCESS
2AC4  E103     BNZ _2jContinue
2AC6  0EFC     MOVLW 0xFC
2AC8  50E3     MOVF PLUSW1, W, ACCESS
2ACA  E009     BZ jEnd
2ACC  0EFB     MOVLW 0xFB
2ACE  06E3     DECF PLUSW1, F, ACCESS
2AD0  E202     BC _3jEnd
2AD2  0EFC     MOVLW 0xFC
2AD4  06E3     DECF PLUSW1, F, ACCESS
2AD6  0EFD     MOVLW 0xFD
2AD8  50E3     MOVF PLUSW1, W, ACCESS
2ADA  6EEE     MOVWF POSTINC0, ACCESS
2ADC  D7F1     BRA jLoop
2ADE  0012     RETURN 0
---  E:/3.46/pic18-lt/cxx-framework/src/traditional/stdclib/itobcd.asm  ---------------------------------
25DA  0EFC     MOVLW 0xFC
25DC  CFE3     MOVFF PLUSW1, FSR0
25DE  FFE9     NOP
25E0  0EFD     MOVLW 0xFD
25E2  CFE3     MOVFF PLUSW1, FSR0H
25E4  FFEA     NOP
25E6  0E10     MOVLW 0x10
25E8  6EE6     MOVWF POSTINC1, ACCESS
25EA  6AEE     CLRF POSTINC0, ACCESS
25EC  6AEE     CLRF POSTINC0, ACCESS
25EE  6AEF     CLRF INDF0, ACCESS
25F0  90D8     BCF STATUS, 0, ACCESS
25F2  0EFD     MOVLW 0xFD
25F4  36E3     RLCF PLUSW1, F, ACCESS
25F6  0EFE     MOVLW 0xFE
25F8  36E3     RLCF PLUSW1, F, ACCESS
25FA  36ED     RLCF POSTDEC0, F, ACCESS
25FC  36ED     RLCF POSTDEC0, F, ACCESS
25FE  36EF     RLCF INDF0, F, ACCESS
2600  0EFF     MOVLW 0xFF
2602  06E3     DECF PLUSW1, F, ACCESS
2604  E009     BZ jEnd
2606  EC0E     CALL 0x261C, 0
2608  F013     NOP
260A  52EE     MOVF POSTINC0, F, ACCESS
260C  EC0E     CALL 0x261C, 0
260E  F013     NOP
2610  52EE     MOVF POSTINC0, F, ACCESS
2612  EC0E     CALL 0x261C, 0
2614  F013     NOP
2616  D7ED     BRA jLoop
2618  6EE5     MOVWF POSTDEC1, ACCESS
261A  0012     RETURN 0
261C  0E03     MOVLW 0x3
261E  24EF     ADDWF INDF0, W, ACCESS
2620  B6E8     BTFSC WREG, 3, ACCESS
2622  6EEF     MOVWF INDF0, ACCESS
2624  0E30     MOVLW 0x30
2626  24EF     ADDWF INDF0, W, ACCESS
2628  BEE8     BTFSC WREG, 7, ACCESS
262A  6EEF     MOVWF INDF0, ACCESS
262C  0C00     RETLW 0x0
---  E:/3.46/pic18-lt/cxx-framework/src/traditional/stdclib/itoa.asm  -----------------------------------
24FA  CFD9     MOVFF FSR2, POSTINC1
24FC  FFE6     NOP
24FE  CFDA     MOVFF FSR2H, POSTINC1
2500  FFE6     NOP
2502  0EFA     MOVLW 0xFA
2504  CFE3     MOVFF PLUSW1, FSR2
2506  FFD9     NOP
2508  0EFB     MOVLW 0xFB
250A  CFE3     MOVFF PLUSW1, FSR2H
250C  FFDA     NOP
250E  0EFD     MOVLW 0xFD
2510  52E3     MOVF PLUSW1, F, ACCESS
2512  E709     BNN jTstSign1
2514  0E2D     MOVLW 0x2D
2516  6EDE     MOVWF POSTINC2, ACCESS
2518  0EFC     MOVLW 0xFC
251A  1EE3     COMF PLUSW1, F, ACCESS
251C  2AE3     INCF PLUSW1, F, ACCESS
251E  0EFD     MOVLW 0xFD
2520  B4D8     BTFSC STATUS, 2, ACCESS
2522  06E3     DECF PLUSW1, F, ACCESS
2524  1EE3     COMF PLUSW1, F, ACCESS
2526  52E6     MOVF POSTINC1, F, ACCESS
2528  52E6     MOVF POSTINC1, F, ACCESS
252A  52E6     MOVF POSTINC1, F, ACCESS
252C  0EFD     MOVLW 0xFD
252E  24E1     ADDWF FSR1, W, ACCESS
2530  6EE7     MOVWF INDF1, ACCESS
2532  0EFF     MOVLW 0xFF
2534  20E2     ADDWFC FSR1H, W, ACCESS
2536  6EE4     MOVWF PREINC1, ACCESS
2538  52E6     MOVF POSTINC1, F, ACCESS
253A  0EF7     MOVLW 0xF7
253C  CFE3     MOVFF PLUSW1, POSTINC1
253E  FFE6     NOP
2540  0EF7     MOVLW 0xF7
2542  CFE3     MOVFF PLUSW1, POSTINC1
2544  FFE6     NOP
2546  ECED     CALL 0x25DA, 0
2548  F012     NOP
254A  0EF9     MOVLW 0xF9
254C  24E1     ADDWF FSR1, W, ACCESS
254E  6EE9     MOVWF FSR0, ACCESS
2550  0EFF     MOVLW 0xFF
2552  20E2     ADDWFC FSR1H, W, ACCESS
2554  6EEA     MOVWF FSR0H, ACCESS
2556  ECDD     CALL 0x25BA, 0
2558  F012     NOP
255A  E10A     BNZ jDo5
255C  ECDA     CALL 0x25B4, 0
255E  F012     NOP
2560  E109     BNZ jDo4
2562  ECDD     CALL 0x25BA, 0
2564  F012     NOP
2566  E108     BNZ jDo3
2568  ECDA     CALL 0x25B4, 0
256A  F012     NOP
256C  E107     BNZ jDo2
256E  D008     BRA jDo1
2570  ECE8     CALL 0x25D0, 0
2572  F012     NOP
2574  ECE3     CALL 0x25C6, 0
2576  F012     NOP
2578  ECE8     CALL 0x25D0, 0
257A  F012     NOP
257C  ECE3     CALL 0x25C6, 0
257E  F012     NOP
2580  ECE8     CALL 0x25D0, 0
2582  F012     NOP
2584  6ADE     CLRF POSTINC2, ACCESS
2586  0EF9     MOVLW 0xF9
2588  26E1     ADDWF FSR1, F, ACCESS
258A  0EFF     MOVLW 0xFF
258C  22E2     ADDWFC FSR1H, F, ACCESS
258E  0EFF     MOVLW 0xFF
2590  CFE3     MOVFF PLUSW1, FSR2H
2592  FFDA     NOP
2594  52E5     MOVF POSTDEC1, F, ACCESS
2596  0EFF     MOVLW 0xFF
2598  CFE3     MOVFF PLUSW1, FSR2
259A  FFD9     NOP
259C  52E5     MOVF POSTDEC1, F, ACCESS
259E  0EFC     MOVLW 0xFC
25A0  24E1     ADDWF FSR1, W, ACCESS
25A2  6EE9     MOVWF FSR0, ACCESS
25A4  0EFF     MOVLW 0xFF
25A6  20E2     ADDWFC FSR1H, W, ACCESS
25A8  6EEA     MOVWF FSR0H, ACCESS
25AA  CFEE     MOVFF POSTINC0, PROD
25AC  FFF3     NOP
25AE  CFEF     MOVFF INDF0, PRODH
25B0  FFF4     NOP
25B2  0012     RETURN 0
25B4  38EF     SWAPF INDF0, W, ACCESS
25B6  0B0F     ANDLW 0xF
25B8  0012     RETURN 0
25BA  50EF     MOVF INDF0, W, ACCESS
25BC  0B0F     ANDLW 0xF
25BE  E102     BNZ jTstLowZ1
25C0  52EE     MOVF POSTINC0, F, ACCESS
25C2  84D8     BSF STATUS, 2, ACCESS
25C4  0012     RETURN 0
25C6  38EF     SWAPF INDF0, W, ACCESS
25C8  0B0F     ANDLW 0xF
25CA  0F30     ADDLW 0x30
25CC  6EDE     MOVWF POSTINC2, ACCESS
25CE  0012     RETURN 0
25D0  50EE     MOVF POSTINC0, W, ACCESS
25D2  0B0F     ANDLW 0xF
25D4  0F30     ADDLW 0x30
25D6  6EDE     MOVWF POSTINC2, ACCESS
25D8  0012     RETURN 0
---  E:/3.46/pic18-lt/cxx-framework/src/traditional/stdclib/isdigit.asm  --------------------------------
31B8  6AF3     CLRF PROD, ACCESS
31BA  6AF4     CLRF PRODH, ACCESS
31BC  0EFF     MOVLW 0xFF
31BE  24E1     ADDWF FSR1, W, ACCESS
31C0  6EE9     MOVWF FSR0, ACCESS
31C2  0EFF     MOVLW 0xFF
31C4  20E2     ADDWFC FSR1H, W, ACCESS
31C6  6EEA     MOVWF FSR0H, ACCESS
31C8  66ED     TSTFSZ POSTDEC0, ACCESS
31CA  D007     BRA jNoMatch
31CC  0E2F     MOVLW 0x2F
31CE  64EF     CPFSGT INDF0, ACCESS
31D0  D004     BRA jNoMatch
31D2  0E3A     MOVLW 0x3A
31D4  60EF     CPFSLT INDF0, ACCESS
31D6  D001     BRA jNoMatch
31D8  2AF3     INCF PROD, F, ACCESS
31DA  0012     RETURN 0
---  E:/3.46/pic18-lt/cxx-framework/src/traditional/stdclib/_user_putc.c  -------------------------------
0006  0012     RETURN 0
---  E:/3.46/pic18-lt/cxx-framework/src/traditional/stdclib/__init.c  -----------------------------------
0012  0012     RETURN 0
---  E:/3.46/pic18-lt/cxx-framework/src/traditional/startup/c018i.c  ------------------------------------
0000  EF0E     GOTO 0x321C
0002  F019     NOP
0004  0012     RETURN 0
321C  EE13     LFSR 1, 0x381
321E  F081     NOP
3220  EE23     LFSR 2, 0x381
3222  F081     NOP
3224  6AF8     CLRF TBLPTRU, ACCESS
3226  9C01     BCF ccp2mx, 6, ACCESS
3228  EC07     CALL 0x2A0E, 0
322A  F015     NOP
322C  EC09     CALL 0x12, 0
322E  F000     NOP
3230  EC9B     CALL 0x1F36, 0
3232  F00F     NOP
3234  D7FB     BRA 0x322C
3236  0012     RETURN 0
2A0E  0E1E     MOVLW 0x1E
2A10  6EF6     MOVWF TBLPTR, ACCESS
2A12  0E00     MOVLW 0x0
2A14  6EF7     MOVWF TBLPTRH, ACCESS
2A16  0E00     MOVLW 0x0
2A18  6EF8     MOVWF TBLPTRU, ACCESS
2A1A  0104     MOVLB 0x4
2A1C  0009     TBLRD*+
2A1E  50F5     MOVF TABLAT, W, ACCESS
2A20  6F40     MOVWF 0x40, BANKED
2A22  0009     TBLRD*+
2A24  50F5     MOVF TABLAT, W, ACCESS
2A26  6F41     MOVWF 0x41, BANKED
2A28  E103     BNZ 0x2A30
2A2A  6740     TSTFSZ 0x40, BANKED
2A2C  D001     BRA 0x2A30
2A2E  D03D     BRA 0x2AAA
2A30  0009     TBLRD*+
2A32  50F5     MOVF TABLAT, W, ACCESS
2A34  6F3B     MOVWF 0x3B, BANKED
2A36  0009     TBLRD*+
2A38  50F5     MOVF TABLAT, W, ACCESS
2A3A  6F3C     MOVWF 0x3C, BANKED
2A3C  0009     TBLRD*+
2A3E  50F5     MOVF TABLAT, W, ACCESS
2A40  6F3D     MOVWF 0x3D, BANKED
2A42  0009     TBLRD*+
2A44  0009     TBLRD*+
2A46  50F5     MOVF TABLAT, W, ACCESS
2A48  6EE9     MOVWF FSR0, ACCESS
2A4A  0009     TBLRD*+
2A4C  50F5     MOVF TABLAT, W, ACCESS
2A4E  6EEA     MOVWF FSR0H, ACCESS
2A50  0009     TBLRD*+
2A52  0009     TBLRD*+
2A54  0009     TBLRD*+
2A56  50F5     MOVF TABLAT, W, ACCESS
2A58  6F3E     MOVWF 0x3E, BANKED
2A5A  0009     TBLRD*+
2A5C  50F5     MOVF TABLAT, W, ACCESS
2A5E  6F3F     MOVWF 0x3F, BANKED
2A60  0009     TBLRD*+
2A62  0009     TBLRD*+
2A64  CFF6     MOVFF TBLPTR, data_ptr
2A66  F442     NOP
2A68  CFF7     MOVFF TBLPTRH, 0x443
2A6A  F443     NOP
2A6C  CFF8     MOVFF TBLPTRU, 0x444
2A6E  F444     NOP
2A70  C43B     MOVFF prom, TBLPTR
2A72  FFF6     NOP
2A74  C43C     MOVFF 0x43C, TBLPTRH
2A76  FFF7     NOP
2A78  C43D     MOVFF 0x43D, TBLPTRU
2A7A  FFF8     NOP
2A7C  0104     MOVLB 0x4
2A7E  533E     MOVF 0x3E, F, BANKED
2A80  E102     BNZ 0x2A86
2A82  533F     MOVF 0x3F, F, BANKED
2A84  E007     BZ 0x2A94
2A86  0009     TBLRD*+
2A88  50F5     MOVF TABLAT, W, ACCESS
2A8A  6EEE     MOVWF POSTINC0, ACCESS
2A8C  073E     DECF 0x3E, F, BANKED
2A8E  E2F8     BC 0x2A80
2A90  073F     DECF 0x3F, F, BANKED
2A92  D7F9     BRA 0x2A86
2A94  C442     MOVFF data_ptr, TBLPTR
2A96  FFF6     NOP
2A98  C443     MOVFF 0x443, TBLPTRH
2A9A  FFF7     NOP
2A9C  C444     MOVFF 0x444, TBLPTRU
2A9E  FFF8     NOP
2AA0  0104     MOVLB 0x4
2AA2  0740     DECF 0x40, F, BANKED
2AA4  0E00     MOVLW 0x0
2AA6  5B41     SUBWFB 0x41, F, BANKED
2AA8  D7BF     BRA 0x2A28
2AAA  0012     RETURN 0
---  E:/3.46/pic18-lt/cxx-framework/src/traditional/proc/p18f452.asm  -----------------------------------
31FC  0E00     MOVLW 0x0
31FE  6EF3     MOVWF PROD, ACCESS
3200  EE00     LFSR 0, 0x0
3202  F000     NOP
3204  0E06     MOVLW 0x6
3206  D801     RCALL zero_block
3208  0012     RETURN 0
320A  60EA     CPFSLT FSR0H, ACCESS
320C  D002     BRA compare_l
320E  6AEE     CLRF POSTINC0, ACCESS
3210  D7FC     BRA zero_block
3212  50F3     MOVF PROD, W, ACCESS
3214  60E9     CPFSLT FSR0, ACCESS
3216  0012     RETURN 0
3218  6AEE     CLRF POSTINC0, ACCESS
321A  D7FC     BRA loop_l
---  E:/3.46/pic18-lt/cxx-framework/src/traditional/math/packFP.asm  ------------------------------------
1858  0E7F     MOVLW 0x7F
185A  6E0A     MOVWF larg, ACCESS
185C  0EFF     MOVLW 0xFF
185E  6E09     MOVWF cval, ACCESS
1860  6E08     MOVWF count, ACCESS
1862  6E07     MOVWF size, ACCESS
1864  0012     RETURN 0
1866  0E7F     MOVLW 0x7F
1868  BE01     BTFSC ccp2mx, 7, ACCESS
186A  0EFF     MOVLW 0xFF
186C  6E0A     MOVWF larg, ACCESS
186E  D002     BRA jReturnPosInf0
1870  0E7F     MOVLW 0x7F
1872  6E0A     MOVWF larg, ACCESS
1874  0E80     MOVLW 0x80
1876  6E09     MOVWF cval, ACCESS
1878  6A08     CLRF count, ACCESS
187A  6A07     CLRF size, ACCESS
187C  D7F3     BRA __FpExit
187E  AE01     BTFSS ccp2mx, 7, ACCESS
1880  D004     BRA __FpReturnPosZero
1882  0E80     MOVLW 0x80
1884  6E0A     MOVWF larg, ACCESS
1886  6A09     CLRF cval, ACCESS
1888  D7F7     BRA jZero1and2
188A  6A0A     CLRF larg, ACCESS
188C  6A09     CLRF cval, ACCESS
188E  D7F4     BRA jZero1and2
1890  5003     MOVF flags, W, ACCESS
1892  1002     IORWF total_temperature, W, ACCESS
1894  1013     IORWF n, W, ACCESS
1896  1012     IORWF 0x12, W, ACCESS
1898  E0F8     BZ __FpReturnPosZero
189A  BE05     BTFSC precision, 7, ACCESS
189C  D7F0     BRA __FpReturnSignZero
189E  BE03     BTFSC flags, 7, ACCESS
18A0  D00C     BRA jPkShiftDone
18A2  5004     MOVF average_temperature, W, ACCESS
18A4  1005     IORWF precision, W, ACCESS
18A6  E0EB     BZ __FpReturnSignZero
18A8  90D8     BCF STATUS, 0, ACCESS
18AA  3612     RLCF 0x12, F, ACCESS
18AC  3613     RLCF n, F, ACCESS
18AE  3602     RLCF total_temperature, F, ACCESS
18B0  3603     RLCF flags, F, ACCESS
18B2  0604     DECF average_temperature, F, ACCESS
18B4  A0D8     BTFSS STATUS, 0, ACCESS
18B6  0605     DECF precision, F, ACCESS
18B8  D7F2     BRA jPkLoop
18BA  5005     MOVF precision, W, ACCESS
18BC  E1D4     BNZ __FpReturnSignInf
18BE  2804     INCF average_temperature, W, ACCESS
18C0  E0D2     BZ __FpReturnSignInf
18C2  AE12     BTFSS 0x12, 7, ACCESS
18C4  D011     BRA jPkRoundDone
18C6  0E7F     MOVLW 0x7F
18C8  1412     ANDWF 0x12, W, ACCESS
18CA  E102     BNZ jPkRoundIt
18CC  A013     BTFSS n, 0, ACCESS
18CE  D00C     BRA jPkRoundDone
18D0  2A13     INCF n, F, ACCESS
18D2  6AE8     CLRF WREG, ACCESS
18D4  2202     ADDWFC total_temperature, F, ACCESS
18D6  2203     ADDWFC flags, F, ACCESS
18D8  E307     BNC jPkRoundDone
18DA  80D8     BSF STATUS, 0, ACCESS
18DC  3203     RRCF flags, F, ACCESS
18DE  3202     RRCF total_temperature, F, ACCESS
18E0  3213     RRCF n, F, ACCESS
18E2  2A04     INCF average_temperature, F, ACCESS
18E4  2804     INCF average_temperature, W, ACCESS
18E6  E0BF     BZ __FpReturnSignInf
18E8  5004     MOVF average_temperature, W, ACCESS
18EA  E0C9     BZ __FpReturnSignZero
18EC  C013     MOVFF n, size
18EE  F007     NOP
18F0  C002     MOVFF total_temperature, count
18F2  F008     NOP
18F4  3403     RLCF flags, W, ACCESS
18F6  6E09     MOVWF cval, ACCESS
18F8  3004     RRCF average_temperature, W, ACCESS
18FA  6E0A     MOVWF larg, ACCESS
18FC  3209     RRCF cval, F, ACCESS
18FE  9E0A     BCF larg, 7, ACCESS
1900  BE01     BTFSC ccp2mx, 7, ACCESS
1902  8E0A     BSF larg, 7, ACCESS
1904  EF32     GOTO 0x1864
1906  F00C     NOP
---  E:/3.46/pic18-lt/cxx-framework/src/traditional/math/mulFP.asm  -------------------------------------
1530  6A01     CLRF ccp2mx, ACCESS
1532  EC84     CALL 0x1908, 0
1534  F00C     NOP
1536  EC9C     CALL 0x1938, 0
1538  F00C     NOP
153A  B601     BTFSC ccp2mx, 3, ACCESS
153C  EF2C     GOTO 0x1858
153E  F00C     NOP
1540  A201     BTFSS ccp2mx, 1, ACCESS
1542  D005     BRA jANotInf
1544  B801     BTFSC ccp2mx, 4, ACCESS
1546  EF2C     GOTO 0x1858
1548  F00C     NOP
154A  EF33     GOTO 0x1866
154C  F00C     NOP
154E  AA01     BTFSS ccp2mx, 5, ACCESS
1550  D005     BRA jBothFinite
1552  B001     BTFSC ccp2mx, 0, ACCESS
1554  EF2C     GOTO 0x1858
1556  F00C     NOP
1558  EF33     GOTO 0x1866
155A  F00C     NOP
155C  B001     BTFSC ccp2mx, 0, ACCESS
155E  D002     BRA jHaveZero
1560  A801     BTFSS ccp2mx, 4, ACCESS
1562  D002     BRA jBothNotZero
1564  EF3F     GOTO 0x187E
1566  F00C     NOP
1568  6A05     CLRF precision, ACCESS
156A  500F     MOVF 0xF, W, ACCESS
156C  240A     ADDWF larg, W, ACCESS
156E  6E04     MOVWF average_temperature, ACCESS
1570  6AE8     CLRF WREG, ACCESS
1572  2205     ADDWFC precision, F, ACCESS
1574  0E7E     MOVLW 0x7E
1576  5E04     SUBWF average_temperature, F, ACCESS
1578  6AE8     CLRF WREG, ACCESS
157A  5A05     SUBWFB precision, F, ACCESS
157C  6A12     CLRF 0x12, ACCESS
157E  6A13     CLRF n, ACCESS
1580  6A02     CLRF total_temperature, ACCESS
1582  6A03     CLRF flags, ACCESS
1584  500E     MOVF romstring, W, ACCESS
1586  0209     MULWF cval, ACCESS
1588  CFF4     MOVFF PRODH, flags
158A  F003     NOP
158C  CFF3     MOVFF PROD, total_temperature
158E  F002     NOP
1590  500D     MOVF 0xD, W, ACCESS
1592  0209     MULWF cval, ACCESS
1594  50F3     MOVF PROD, W, ACCESS
1596  2613     ADDWF n, F, ACCESS
1598  50F4     MOVF PRODH, W, ACCESS
159A  2202     ADDWFC total_temperature, F, ACCESS
159C  0E00     MOVLW 0x0
159E  2203     ADDWFC flags, F, ACCESS
15A0  500E     MOVF romstring, W, ACCESS
15A2  0208     MULWF count, ACCESS
15A4  50F3     MOVF PROD, W, ACCESS
15A6  2613     ADDWF n, F, ACCESS
15A8  50F4     MOVF PRODH, W, ACCESS
15AA  2202     ADDWFC total_temperature, F, ACCESS
15AC  0E00     MOVLW 0x0
15AE  2203     ADDWFC flags, F, ACCESS
15B0  500C     MOVF 0xC, W, ACCESS
15B2  0209     MULWF cval, ACCESS
15B4  50F3     MOVF PROD, W, ACCESS
15B6  2612     ADDWF 0x12, F, ACCESS
15B8  50F4     MOVF PRODH, W, ACCESS
15BA  2213     ADDWFC n, F, ACCESS
15BC  0E00     MOVLW 0x0
15BE  2202     ADDWFC total_temperature, F, ACCESS
15C0  2203     ADDWFC flags, F, ACCESS
15C2  500D     MOVF 0xD, W, ACCESS
15C4  0208     MULWF count, ACCESS
15C6  50F3     MOVF PROD, W, ACCESS
15C8  2612     ADDWF 0x12, F, ACCESS
15CA  50F4     MOVF PRODH, W, ACCESS
15CC  2213     ADDWFC n, F, ACCESS
15CE  0E00     MOVLW 0x0
15D0  2202     ADDWFC total_temperature, F, ACCESS
15D2  2203     ADDWFC flags, F, ACCESS
15D4  500E     MOVF romstring, W, ACCESS
15D6  0207     MULWF size, ACCESS
15D8  50F3     MOVF PROD, W, ACCESS
15DA  2612     ADDWF 0x12, F, ACCESS
15DC  50F4     MOVF PRODH, W, ACCESS
15DE  2213     ADDWFC n, F, ACCESS
15E0  0E00     MOVLW 0x0
15E2  2202     ADDWFC total_temperature, F, ACCESS
15E4  2203     ADDWFC flags, F, ACCESS
15E6  500C     MOVF 0xC, W, ACCESS
15E8  0208     MULWF count, ACCESS
15EA  50F4     MOVF PRODH, W, ACCESS
15EC  2612     ADDWF 0x12, F, ACCESS
15EE  0E00     MOVLW 0x0
15F0  2213     ADDWFC n, F, ACCESS
15F2  2202     ADDWFC total_temperature, F, ACCESS
15F4  2203     ADDWFC flags, F, ACCESS
15F6  500D     MOVF 0xD, W, ACCESS
15F8  0207     MULWF size, ACCESS
15FA  50F4     MOVF PRODH, W, ACCESS
15FC  2612     ADDWF 0x12, F, ACCESS
15FE  0E00     MOVLW 0x0
1600  2213     ADDWFC n, F, ACCESS
1602  2202     ADDWFC total_temperature, F, ACCESS
1604  2203     ADDWFC flags, F, ACCESS
1606  EF48     GOTO 0x1890
1608  F00C     NOP
---  E:/3.46/pic18-lt/cxx-framework/src/traditional/math/ltFP.asm  --------------------------------------
179C  ECD7     CALL 0x17AE, 0
179E  F00B     NOP
17A0  B601     BTFSC ccp2mx, 3, ACCESS
17A2  0C00     RETLW 0x0
17A4  B001     BTFSC ccp2mx, 0, ACCESS
17A6  0C00     RETLW 0x0
17A8  A401     BTFSS ccp2mx, 2, ACCESS
17AA  0C00     RETLW 0x0
17AC  0C01     RETLW 0x1
---  E:/3.46/pic18-lt/cxx-framework/src/traditional/math/gtFP.asm  --------------------------------------
178A  ECD7     CALL 0x17AE, 0
178C  F00B     NOP
178E  B601     BTFSC ccp2mx, 3, ACCESS
1790  0C00     RETLW 0x0
1792  B001     BTFSC ccp2mx, 0, ACCESS
1794  0C00     RETLW 0x0
1796  B401     BTFSC ccp2mx, 2, ACCESS
1798  0C00     RETLW 0x0
179A  0C01     RETLW 0x1
---  E:/3.46/pic18-lt/cxx-framework/src/traditional/math/fxm3232.c  -------------------------------------
2BCA  5006     MOVF have_precision, W, ACCESS
2BCC  020B     MULWF 0xB, ACCESS
2BCE  CFF3     MOVFF PROD, total_temperature
2BD0  F002     NOP
2BD2  CFF4     MOVFF PRODH, flags
2BD4  F003     NOP
2BD6  020C     MULWF 0xC, ACCESS
2BD8  50F3     MOVF PROD, W, ACCESS
2BDA  2603     ADDWF flags, F, ACCESS
2BDC  0E00     MOVLW 0x0
2BDE  20F4     ADDWFC PRODH, W, ACCESS
2BE0  6E04     MOVWF average_temperature, ACCESS
2BE2  5006     MOVF have_precision, W, ACCESS
2BE4  020D     MULWF 0xD, ACCESS
2BE6  50F3     MOVF PROD, W, ACCESS
2BE8  2604     ADDWF average_temperature, F, ACCESS
2BEA  0E00     MOVLW 0x0
2BEC  20F4     ADDWFC PRODH, W, ACCESS
2BEE  6E05     MOVWF precision, ACCESS
2BF0  5006     MOVF have_precision, W, ACCESS
2BF2  020E     MULWF romstring, ACCESS
2BF4  50F3     MOVF PROD, W, ACCESS
2BF6  2605     ADDWF precision, F, ACCESS
2BF8  5007     MOVF size, W, ACCESS
2BFA  020B     MULWF 0xB, ACCESS
2BFC  50F3     MOVF PROD, W, ACCESS
2BFE  2603     ADDWF flags, F, ACCESS
2C00  50F4     MOVF PRODH, W, ACCESS
2C02  2204     ADDWFC average_temperature, F, ACCESS
2C04  0E00     MOVLW 0x0
2C06  2205     ADDWFC precision, F, ACCESS
2C08  5007     MOVF size, W, ACCESS
2C0A  020C     MULWF 0xC, ACCESS
2C0C  50F3     MOVF PROD, W, ACCESS
2C0E  2604     ADDWF average_temperature, F, ACCESS
2C10  50F4     MOVF PRODH, W, ACCESS
2C12  2205     ADDWFC precision, F, ACCESS
2C14  5007     MOVF size, W, ACCESS
2C16  020D     MULWF 0xD, ACCESS
2C18  50F3     MOVF PROD, W, ACCESS
2C1A  2605     ADDWF precision, F, ACCESS
2C1C  5008     MOVF count, W, ACCESS
2C1E  020B     MULWF 0xB, ACCESS
2C20  50F3     MOVF PROD, W, ACCESS
2C22  2604     ADDWF average_temperature, F, ACCESS
2C24  50F4     MOVF PRODH, W, ACCESS
2C26  2205     ADDWFC precision, F, ACCESS
2C28  5008     MOVF count, W, ACCESS
2C2A  020C     MULWF 0xC, ACCESS
2C2C  50F3     MOVF PROD, W, ACCESS
2C2E  2605     ADDWF precision, F, ACCESS
2C30  5009     MOVF cval, W, ACCESS
2C32  020B     MULWF 0xB, ACCESS
2C34  50F3     MOVF PROD, W, ACCESS
2C36  2605     ADDWF precision, F, ACCESS
2C38  0012     RETURN 0
---  E:/3.46/pic18-lt/cxx-framework/src/traditional/math/fxm1616s.asm  ----------------------------------
1656  C009     MOVFF cval, n
1658  F013     NOP
165A  C008     MOVFF count, 0x12
165C  F012     NOP
165E  5008     MOVF count, W, ACCESS
1660  020D     MULWF 0xD, ACCESS
1662  CFF4     MOVFF PRODH, size
1664  F007     NOP
1666  CFF3     MOVFF PROD, have_precision
1668  F006     NOP
166A  5009     MOVF cval, W, ACCESS
166C  020E     MULWF romstring, ACCESS
166E  CFF4     MOVFF PRODH, cval
1670  F009     NOP
1672  CFF3     MOVFF PROD, count
1674  F008     NOP
1676  020D     MULWF 0xD, ACCESS
1678  50F3     MOVF PROD, W, ACCESS
167A  2607     ADDWF size, F, ACCESS
167C  50F4     MOVF PRODH, W, ACCESS
167E  2208     ADDWFC count, F, ACCESS
1680  6AE8     CLRF WREG, ACCESS
1682  2209     ADDWFC cval, F, ACCESS
1684  5012     MOVF 0x12, W, ACCESS
1686  020E     MULWF romstring, ACCESS
1688  50F3     MOVF PROD, W, ACCESS
168A  2607     ADDWF size, F, ACCESS
168C  50F4     MOVF PRODH, W, ACCESS
168E  2208     ADDWFC count, F, ACCESS
1690  6AE8     CLRF WREG, ACCESS
1692  2209     ADDWFC cval, F, ACCESS
1694  AE0E     BTFSS romstring, 7, ACCESS
1696  EF51     GOTO 0x16A2
1698  F00B     NOP
169A  5012     MOVF 0x12, W, ACCESS
169C  5E08     SUBWF count, F, ACCESS
169E  5013     MOVF n, W, ACCESS
16A0  5A09     SUBWFB cval, F, ACCESS
16A2  AE13     BTFSS n, 7, ACCESS
16A4  0C00     RETLW 0x0
16A6  500D     MOVF 0xD, W, ACCESS
16A8  5E08     SUBWF count, F, ACCESS
16AA  500E     MOVF romstring, W, ACCESS
16AC  5A09     SUBWFB cval, F, ACCESS
16AE  0C00     RETLW 0x0
---  E:/3.46/pic18-lt/cxx-framework/src/traditional/math/fxd3232u.c  ------------------------------------
2EC2  6A05     CLRF precision, ACCESS
2EC4  6A04     CLRF average_temperature, ACCESS
2EC6  6A03     CLRF flags, ACCESS
2EC8  6A02     CLRF total_temperature, ACCESS
2ECA  0E20     MOVLW 0x20
2ECC  6EE7     MOVWF INDF1, ACCESS
2ECE  90D8     BCF STATUS, 0, ACCESS
2ED0  3606     RLCF have_precision, F, ACCESS
2ED2  3607     RLCF size, F, ACCESS
2ED4  3608     RLCF count, F, ACCESS
2ED6  3609     RLCF cval, F, ACCESS
2ED8  3602     RLCF total_temperature, F, ACCESS
2EDA  3603     RLCF flags, F, ACCESS
2EDC  3604     RLCF average_temperature, F, ACCESS
2EDE  3605     RLCF precision, F, ACCESS
2EE0  500B     MOVF 0xB, W, ACCESS
2EE2  5C02     SUBWF total_temperature, W, ACCESS
2EE4  500C     MOVF 0xC, W, ACCESS
2EE6  5803     SUBWFB flags, W, ACCESS
2EE8  500D     MOVF 0xD, W, ACCESS
2EEA  5804     SUBWFB average_temperature, W, ACCESS
2EEC  500E     MOVF romstring, W, ACCESS
2EEE  5805     SUBWFB precision, W, ACCESS
2EF0  E309     BNC 0x2F04
2EF2  500B     MOVF 0xB, W, ACCESS
2EF4  5E02     SUBWF total_temperature, F, ACCESS
2EF6  500C     MOVF 0xC, W, ACCESS
2EF8  5A03     SUBWFB flags, F, ACCESS
2EFA  500D     MOVF 0xD, W, ACCESS
2EFC  5A04     SUBWFB average_temperature, F, ACCESS
2EFE  500E     MOVF romstring, W, ACCESS
2F00  5A05     SUBWFB precision, F, ACCESS
2F02  2A06     INCF have_precision, F, ACCESS
2F04  2EE7     DECFSZ INDF1, F, ACCESS
2F06  D7E4     BRA 0x2ED0
2F08  0012     RETURN 0
---  E:/3.46/pic18-lt/cxx-framework/src/traditional/math/fxd1616u.c  ------------------------------------
318C  6A05     CLRF precision, ACCESS
318E  6A04     CLRF average_temperature, ACCESS
3190  0E10     MOVLW 0x10
3192  6EE7     MOVWF INDF1, ACCESS
3194  90D8     BCF STATUS, 0, ACCESS
3196  3608     RLCF count, F, ACCESS
3198  3609     RLCF cval, F, ACCESS
319A  3604     RLCF average_temperature, F, ACCESS
319C  3605     RLCF precision, F, ACCESS
319E  500D     MOVF 0xD, W, ACCESS
31A0  5C04     SUBWF average_temperature, W, ACCESS
31A2  500E     MOVF romstring, W, ACCESS
31A4  5805     SUBWFB precision, W, ACCESS
31A6  E305     BNC 0x31B2
31A8  500D     MOVF 0xD, W, ACCESS
31AA  5E04     SUBWF average_temperature, F, ACCESS
31AC  500E     MOVF romstring, W, ACCESS
31AE  5A05     SUBWFB precision, F, ACCESS
31B0  2A08     INCF count, F, ACCESS
31B2  2EE7     DECFSZ INDF1, F, ACCESS
31B4  D7F0     BRA 0x3196
31B6  0012     RETURN 0
---  E:/3.46/pic18-lt/cxx-framework/src/traditional/math/fxd1616s.asm  ----------------------------------
160A  6A00     CLRF count, ACCESS
160C  AE0E     BTFSS romstring, 7, ACCESS
160E  EF0E     GOTO 0x161C
1610  F00B     NOP
1612  6C0D     NEGF 0xD, ACCESS
1614  1E0E     COMF romstring, F, ACCESS
1616  6AE8     CLRF WREG, ACCESS
1618  220E     ADDWFC romstring, F, ACCESS
161A  1E00     COMF count, F, ACCESS
161C  AE09     BTFSS cval, 7, ACCESS
161E  EF16     GOTO 0x162C
1620  F00B     NOP
1622  6C08     NEGF count, ACCESS
1624  1E09     COMF cval, F, ACCESS
1626  6AE8     CLRF WREG, ACCESS
1628  2209     ADDWFC cval, F, ACCESS
162A  1E00     COMF count, F, ACCESS
162C  ECC6     CALL 0x318C, 0
162E  F018     NOP
1630  BE09     BTFSC cval, 7, ACCESS
1632  EF26     GOTO 0x164C
1634  F00B     NOP
1636  AE00     BTFSS count, 7, ACCESS
1638  0C00     RETLW 0x0
163A  6C08     NEGF count, ACCESS
163C  1E09     COMF cval, F, ACCESS
163E  6AE8     CLRF WREG, ACCESS
1640  2209     ADDWFC cval, F, ACCESS
1642  6C04     NEGF average_temperature, ACCESS
1644  1E05     COMF precision, F, ACCESS
1646  6AE8     CLRF WREG, ACCESS
1648  2205     ADDWFC precision, F, ACCESS
164A  0C00     RETLW 0x0
164C  BE00     BTFSC count, 7, ACCESS
164E  EF1D     GOTO 0x163A
1650  F00B     NOP
1652  8801     BSF ccp2mx, 4, ACCESS
1654  0CFF     RETLW 0xFF
---  E:/3.46/pic18-lt/cxx-framework/src/traditional/math/eqFP.asm  --------------------------------------
177C  ECD7     CALL 0x17AE, 0
177E  F00B     NOP
1780  B601     BTFSC ccp2mx, 3, ACCESS
1782  0C00     RETLW 0x0
1784  B001     BTFSC ccp2mx, 0, ACCESS
1786  0C01     RETLW 0x1
1788  0C00     RETLW 0x0
---  E:/3.46/pic18-lt/cxx-framework/src/traditional/math/divFP.asm  -------------------------------------
148A  6A01     CLRF ccp2mx, ACCESS
148C  EC84     CALL 0x1908, 0
148E  F00C     NOP
1490  EC9C     CALL 0x1938, 0
1492  F00C     NOP
1494  B601     BTFSC ccp2mx, 3, ACCESS
1496  EF2C     GOTO 0x1858
1498  F00C     NOP
149A  A201     BTFSS ccp2mx, 1, ACCESS
149C  D005     BRA jANotInf
149E  BA01     BTFSC ccp2mx, 5, ACCESS
14A0  EF2C     GOTO 0x1858
14A2  F00C     NOP
14A4  EF33     GOTO 0x1866
14A6  F00C     NOP
14A8  BA01     BTFSC ccp2mx, 5, ACCESS
14AA  EF3F     GOTO 0x187E
14AC  F00C     NOP
14AE  A001     BTFSS ccp2mx, 0, ACCESS
14B0  D005     BRA jANotZero
14B2  B801     BTFSC ccp2mx, 4, ACCESS
14B4  EF2C     GOTO 0x1858
14B6  F00C     NOP
14B8  EF3F     GOTO 0x187E
14BA  F00C     NOP
14BC  B801     BTFSC ccp2mx, 4, ACCESS
14BE  EF33     GOTO 0x1866
14C0  F00C     NOP
14C2  6A05     CLRF precision, ACCESS
14C4  0E7F     MOVLW 0x7F
14C6  240A     ADDWF larg, W, ACCESS
14C8  6E04     MOVWF average_temperature, ACCESS
14CA  6AE8     CLRF WREG, ACCESS
14CC  2205     ADDWFC precision, F, ACCESS
14CE  500F     MOVF 0xF, W, ACCESS
14D0  5E04     SUBWF average_temperature, F, ACCESS
14D2  6AE8     CLRF WREG, ACCESS
14D4  5A05     SUBWFB precision, F, ACCESS
14D6  0E1A     MOVLW 0x1A
14D8  6E10     MOVWF 0x10, ACCESS
14DA  6A0A     CLRF larg, ACCESS
14DC  6A12     CLRF 0x12, ACCESS
14DE  6A13     CLRF n, ACCESS
14E0  6A02     CLRF total_temperature, ACCESS
14E2  6A03     CLRF flags, ACCESS
14E4  500C     MOVF 0xC, W, ACCESS
14E6  5E07     SUBWF size, F, ACCESS
14E8  500D     MOVF 0xD, W, ACCESS
14EA  5A08     SUBWFB count, F, ACCESS
14EC  500E     MOVF romstring, W, ACCESS
14EE  5A09     SUBWFB cval, F, ACCESS
14F0  0E00     MOVLW 0x0
14F2  5A0A     SUBWFB larg, F, ACCESS
14F4  E709     BNN jNoAdjust
14F6  500C     MOVF 0xC, W, ACCESS
14F8  2607     ADDWF size, F, ACCESS
14FA  500D     MOVF 0xD, W, ACCESS
14FC  2208     ADDWFC count, F, ACCESS
14FE  500E     MOVF romstring, W, ACCESS
1500  2209     ADDWFC cval, F, ACCESS
1502  0E00     MOVLW 0x0
1504  220A     ADDWFC larg, F, ACCESS
1506  D001     BRA jNext
1508  8A12     BSF 0x12, 5, ACCESS
150A  90D8     BCF STATUS, 0, ACCESS
150C  3607     RLCF size, F, ACCESS
150E  3608     RLCF count, F, ACCESS
1510  3609     RLCF cval, F, ACCESS
1512  360A     RLCF larg, F, ACCESS
1514  90D8     BCF STATUS, 0, ACCESS
1516  3612     RLCF 0x12, F, ACCESS
1518  3613     RLCF n, F, ACCESS
151A  3602     RLCF total_temperature, F, ACCESS
151C  3603     RLCF flags, F, ACCESS
151E  2E10     DECFSZ 0x10, F, ACCESS
1520  D7E1     BRA jLoop
1522  5009     MOVF cval, W, ACCESS
1524  1008     IORWF count, W, ACCESS
1526  1007     IORWF size, W, ACCESS
1528  A4D8     BTFSS STATUS, 2, ACCESS
152A  8A12     BSF 0x12, 5, ACCESS
152C  EF48     GOTO 0x1890
152E  F00C     NOP
---  E:/3.46/pic18-lt/cxx-framework/src/traditional/math/compFP.asm  ------------------------------------
17AE  6A01     CLRF ccp2mx, ACCESS
17B0  EC84     CALL 0x1908, 0
17B2  F00C     NOP
17B4  EC9C     CALL 0x1938, 0
17B6  F00C     NOP
17B8  B601     BTFSC ccp2mx, 3, ACCESS
17BA  0012     RETURN 0
17BC  AE01     BTFSS ccp2mx, 7, ACCESS
17BE  D008     BRA jSignsEQ
17C0  A001     BTFSS ccp2mx, 0, ACCESS
17C2  D004     BRA jBothNotZero
17C4  A801     BTFSS ccp2mx, 4, ACCESS
17C6  D002     BRA jBothNotZero
17C8  8001     BSF ccp2mx, 0, ACCESS
17CA  0012     RETURN 0
17CC  9001     BCF ccp2mx, 0, ACCESS
17CE  0012     RETURN 0
17D0  500F     MOVF 0xF, W, ACCESS
17D2  5C0A     SUBWF larg, W, ACCESS
17D4  E10B     BNZ jNE
17D6  500E     MOVF romstring, W, ACCESS
17D8  5C09     SUBWF cval, W, ACCESS
17DA  E108     BNZ jNE
17DC  500D     MOVF 0xD, W, ACCESS
17DE  5C08     SUBWF count, W, ACCESS
17E0  E105     BNZ jNE
17E2  500C     MOVF 0xC, W, ACCESS
17E4  5C07     SUBWF size, W, ACCESS
17E6  E102     BNZ jNE
17E8  8001     BSF ccp2mx, 0, ACCESS
17EA  0012     RETURN 0
17EC  A0D8     BTFSS STATUS, 0, ACCESS
17EE  D002     BRA jExch
17F0  8E01     BSF ccp2mx, 7, ACCESS
17F2  D010     BRA jNoExch
17F4  500A     MOVF larg, W, ACCESS
17F6  C00F     MOVFF 0xF, larg
17F8  F00A     NOP
17FA  6E0F     MOVWF 0xF, ACCESS
17FC  5009     MOVF cval, W, ACCESS
17FE  C00E     MOVFF romstring, cval
1800  F009     NOP
1802  6E0E     MOVWF romstring, ACCESS
1804  5008     MOVF count, W, ACCESS
1806  C00D     MOVFF 0xD, count
1808  F008     NOP
180A  6E0D     MOVWF 0xD, ACCESS
180C  5007     MOVF size, W, ACCESS
180E  C00C     MOVFF 0xC, size
1810  F007     NOP
1812  6E0C     MOVWF 0xC, ACCESS
1814  500F     MOVF 0xF, W, ACCESS
1816  5C0A     SUBWF larg, W, ACCESS
1818  E010     BZ jExpEQ
181A  0FFF     ADDLW 0xFF
181C  E009     BZ jShift
181E  9001     BCF ccp2mx, 0, ACCESS
1820  B401     BTFSC ccp2mx, 2, ACCESS
1822  D003     BRA jAisNeg
1824  AE01     BTFSS ccp2mx, 7, ACCESS
1826  8401     BSF ccp2mx, 2, ACCESS
1828  0012     RETURN 0
182A  AE01     BTFSS ccp2mx, 7, ACCESS
182C  9401     BCF ccp2mx, 2, ACCESS
182E  0012     RETURN 0
1830  2A0F     INCF 0xF, F, ACCESS
1832  90D8     BCF STATUS, 0, ACCESS
1834  320E     RRCF romstring, F, ACCESS
1836  320D     RRCF 0xD, F, ACCESS
1838  320C     RRCF 0xC, F, ACCESS
183A  500C     MOVF 0xC, W, ACCESS
183C  5E07     SUBWF size, F, ACCESS
183E  500D     MOVF 0xD, W, ACCESS
1840  5A08     SUBWFB count, F, ACCESS
1842  500E     MOVF romstring, W, ACCESS
1844  5A09     SUBWFB cval, F, ACCESS
1846  BE09     BTFSC cval, 7, ACCESS
1848  D7EA     BRA jFinal
184A  90D8     BCF STATUS, 0, ACCESS
184C  3607     RLCF size, F, ACCESS
184E  3608     RLCF count, F, ACCESS
1850  3609     RLCF cval, F, ACCESS
1852  2E0A     DECFSZ larg, F, ACCESS
1854  D7F8     BRA jRotate
1856  D7C8     BRA jEQ
---  E:/3.46/pic18-lt/cxx-framework/src/traditional/math/castFP32.asm  ----------------------------------
170E  6A01     CLRF ccp2mx, ACCESS
1710  EC84     CALL 0x1908, 0
1712  F00C     NOP
1714  B601     BTFSC ccp2mx, 3, ACCESS
1716  EF91     GOTO 0x1722
1718  F00B     NOP
171A  A201     BTFSS ccp2mx, 1, ACCESS
171C  D00F     BRA jNotInf
171E  B401     BTFSC ccp2mx, 2, ACCESS
1720  D007     BRA jMaxNeg
1722  0E7F     MOVLW 0x7F
1724  6E09     MOVWF cval, ACCESS
1726  0EFF     MOVLW 0xFF
1728  6E08     MOVWF count, ACCESS
172A  6E07     MOVWF size, ACCESS
172C  6E06     MOVWF have_precision, ACCESS
172E  D025     BRA jExit
1730  0E80     MOVLW 0x80
1732  6E09     MOVWF cval, ACCESS
1734  D001     BRA jWrZ123
1736  6A09     CLRF cval, ACCESS
1738  0E00     MOVLW 0x0
173A  D7F6     BRA jWr123
173C  B001     BTFSC ccp2mx, 0, ACCESS
173E  D7FB     BRA jZero
1740  6A06     CLRF have_precision, ACCESS
1742  0E9F     MOVLW 0x9F
1744  600A     CPFSLT larg, ACCESS
1746  D7EB     BRA jMax
1748  0E7E     MOVLW 0x7E
174A  640A     CPFSGT larg, ACCESS
174C  D7F4     BRA jZero
174E  0E9E     MOVLW 0x9E
1750  5C0A     SUBWF larg, W, ACCESS
1752  E007     BZ jLoopExit
1754  90D8     BCF STATUS, 0, ACCESS
1756  3209     RRCF cval, F, ACCESS
1758  3208     RRCF count, F, ACCESS
175A  3207     RRCF size, F, ACCESS
175C  3206     RRCF have_precision, F, ACCESS
175E  2A0A     INCF larg, F, ACCESS
1760  D7F6     BRA jLoop
1762  A401     BTFSS ccp2mx, 2, ACCESS
1764  D00A     BRA jExit
1766  6C06     NEGF have_precision, ACCESS
1768  1E07     COMF size, F, ACCESS
176A  1E08     COMF count, F, ACCESS
176C  1E09     COMF cval, F, ACCESS
176E  6AE8     CLRF WREG, ACCESS
1770  2207     ADDWFC size, F, ACCESS
1772  2208     ADDWFC count, F, ACCESS
1774  2209     ADDWFC cval, F, ACCESS
1776  AE09     BTFSS cval, 7, ACCESS
1778  D7DE     BRA jZero
177A  0012     RETURN 0
---  E:/3.46/pic18-lt/cxx-framework/src/traditional/math/castFP16.asm  ----------------------------------
16B0  6A01     CLRF ccp2mx, ACCESS
16B2  EC84     CALL 0x1908, 0
16B4  F00C     NOP
16B6  B601     BTFSC ccp2mx, 3, ACCESS
16B8  EF62     GOTO 0x16C4
16BA  F00B     NOP
16BC  A201     BTFSS ccp2mx, 1, ACCESS
16BE  D00E     BRA jNotInf
16C0  B401     BTFSC ccp2mx, 2, ACCESS
16C2  D005     BRA jMaxNeg
16C4  0E7F     MOVLW 0x7F
16C6  6E09     MOVWF cval, ACCESS
16C8  0EFF     MOVLW 0xFF
16CA  6E08     MOVWF count, ACCESS
16CC  D01F     BRA jExit
16CE  0E80     MOVLW 0x80
16D0  6E09     MOVWF cval, ACCESS
16D2  6A08     CLRF count, ACCESS
16D4  D01B     BRA jExit
16D6  6A09     CLRF cval, ACCESS
16D8  6A08     CLRF count, ACCESS
16DA  D018     BRA jExit
16DC  B001     BTFSC ccp2mx, 0, ACCESS
16DE  D7FB     BRA jZero
16E0  0E8F     MOVLW 0x8F
16E2  600A     CPFSLT larg, ACCESS
16E4  D7ED     BRA jMax
16E6  0E7E     MOVLW 0x7E
16E8  640A     CPFSGT larg, ACCESS
16EA  D7F5     BRA jZero
16EC  0E8E     MOVLW 0x8E
16EE  5C0A     SUBWF larg, W, ACCESS
16F0  E005     BZ jLoopExit
16F2  90D8     BCF STATUS, 0, ACCESS
16F4  3209     RRCF cval, F, ACCESS
16F6  3208     RRCF count, F, ACCESS
16F8  2A0A     INCF larg, F, ACCESS
16FA  D7F8     BRA jLoop
16FC  A401     BTFSS ccp2mx, 2, ACCESS
16FE  D006     BRA jExit
1700  6C08     NEGF count, ACCESS
1702  1E09     COMF cval, F, ACCESS
1704  6AE8     CLRF WREG, ACCESS
1706  2209     ADDWFC cval, F, ACCESS
1708  AE09     BTFSS cval, 7, ACCESS
170A  D7E5     BRA jZero
170C  0012     RETURN 0
---  E:/3.46/pic18-lt/cxx-framework/src/traditional/math/cast32FP.asm  ----------------------------------
1326  9E01     BCF ccp2mx, 7, ACCESS
1328  D00C     BRA jI2F32Beg
132A  9E01     BCF ccp2mx, 7, ACCESS
132C  AE09     BTFSS cval, 7, ACCESS
132E  D009     BRA jI2F32Beg
1330  6C06     NEGF have_precision, ACCESS
1332  1E07     COMF size, F, ACCESS
1334  1E08     COMF count, F, ACCESS
1336  1E09     COMF cval, F, ACCESS
1338  6AE8     CLRF WREG, ACCESS
133A  2207     ADDWFC size, F, ACCESS
133C  2208     ADDWFC count, F, ACCESS
133E  2209     ADDWFC cval, F, ACCESS
1340  8E01     BSF ccp2mx, 7, ACCESS
1342  C009     MOVFF cval, flags
1344  F003     NOP
1346  C008     MOVFF count, total_temperature
1348  F002     NOP
134A  C007     MOVFF size, n
134C  F013     NOP
134E  C006     MOVFF have_precision, 0x12
1350  F012     NOP
1352  0E9E     MOVLW 0x9E
1354  6E04     MOVWF average_temperature, ACCESS
1356  6A05     CLRF precision, ACCESS
1358  EF48     GOTO 0x1890
135A  F00C     NOP
---  E:/3.46/pic18-lt/cxx-framework/src/traditional/math/cast16FP.asm  ----------------------------------
12FC  9E01     BCF ccp2mx, 7, ACCESS
12FE  D008     BRA jI2F16Beg
1300  9E01     BCF ccp2mx, 7, ACCESS
1302  AE09     BTFSS cval, 7, ACCESS
1304  D005     BRA jI2F16Beg
1306  6C08     NEGF count, ACCESS
1308  1E09     COMF cval, F, ACCESS
130A  6AE8     CLRF WREG, ACCESS
130C  2209     ADDWFC cval, F, ACCESS
130E  8E01     BSF ccp2mx, 7, ACCESS
1310  C009     MOVFF cval, flags
1312  F003     NOP
1314  C008     MOVFF count, total_temperature
1316  F002     NOP
1318  6A13     CLRF n, ACCESS
131A  6A12     CLRF 0x12, ACCESS
131C  0E8E     MOVLW 0x8E
131E  6E04     MOVWF average_temperature, ACCESS
1320  6A05     CLRF precision, ACCESS
1322  EF48     GOTO 0x1890
1324  F00C     NOP
---  E:/3.46/pic18-lt/cxx-framework/src/traditional/math/addFP.asm  -------------------------------------
135C  7E0F     BTG 0xF, 7, ACCESS
135E  6A01     CLRF ccp2mx, ACCESS
1360  EC84     CALL 0x1908, 0
1362  F00C     NOP
1364  EC9C     CALL 0x1938, 0
1366  F00C     NOP
1368  B601     BTFSC ccp2mx, 3, ACCESS
136A  EF2C     GOTO 0x1858
136C  F00C     NOP
136E  A201     BTFSS ccp2mx, 1, ACCESS
1370  D00A     BRA jANotInf
1372  AA01     BTFSS ccp2mx, 5, ACCESS
1374  D003     BRA jBANotInf
1376  BE01     BTFSC ccp2mx, 7, ACCESS
1378  EF2C     GOTO 0x1858
137A  F00C     NOP
137C  A401     BTFSS ccp2mx, 2, ACCESS
137E  EF38     GOTO 0x1870
1380  F00C     NOP
1382  EF35     GOTO 0x186A
1384  F00C     NOP
1386  AA01     BTFSS ccp2mx, 5, ACCESS
1388  D005     BRA jBNotInf
138A  AC01     BTFSS ccp2mx, 6, ACCESS
138C  EF38     GOTO 0x1870
138E  F00C     NOP
1390  EF35     GOTO 0x186A
1392  F00C     NOP
1394  A001     BTFSS ccp2mx, 0, ACCESS
1396  D00A     BRA jNotBothZero
1398  A801     BTFSS ccp2mx, 4, ACCESS
139A  D008     BRA jNotBothZero
139C  BE01     BTFSC ccp2mx, 7, ACCESS
139E  D004     BRA jDifOrPosSign
13A0  A401     BTFSS ccp2mx, 2, ACCESS
13A2  D002     BRA jDifOrPosSign
13A4  EF41     GOTO 0x1882
13A6  F00C     NOP
13A8  EF45     GOTO 0x188A
13AA  F00C     NOP
13AC  6A12     CLRF 0x12, ACCESS
13AE  6A05     CLRF precision, ACCESS
13B0  500F     MOVF 0xF, W, ACCESS
13B2  5C0A     SUBWF larg, W, ACCESS
13B4  6E11     MOVWF ramstring, ACCESS
13B6  E310     BNC jAltBexp
13B8  C007     MOVFF size, n
13BA  F013     NOP
13BC  C008     MOVFF count, total_temperature
13BE  F002     NOP
13C0  C009     MOVFF cval, flags
13C2  F003     NOP
13C4  C00A     MOVFF larg, 0x10
13C6  F010     NOP
13C8  C00C     MOVFF 0xC, size
13CA  F007     NOP
13CC  C00D     MOVFF 0xD, count
13CE  F008     NOP
13D0  C00E     MOVFF romstring, cval
13D2  F009     NOP
13D4  3A01     SWAPF ccp2mx, F, ACCESS
13D6  D009     BRA jAandWsetup
13D8  C00C     MOVFF 0xC, n
13DA  F013     NOP
13DC  C00D     MOVFF 0xD, total_temperature
13DE  F002     NOP
13E0  C00E     MOVFF romstring, flags
13E2  F003     NOP
13E4  C00F     MOVFF 0xF, 0x10
13E6  F010     NOP
13E8  6C11     NEGF ramstring, ACCESS
13EA  9E01     BCF ccp2mx, 7, ACCESS
13EC  BC01     BTFSC ccp2mx, 6, ACCESS
13EE  8E01     BSF ccp2mx, 7, ACCESS
13F0  C010     MOVFF 0x10, average_temperature
13F2  F004     NOP
13F4  B001     BTFSC ccp2mx, 0, ACCESS
13F6  EF74     GOTO 0x18E8
13F8  F00C     NOP
13FA  0E1A     MOVLW 0x1A
13FC  6011     CPFSLT ramstring, ACCESS
13FE  EF74     GOTO 0x18E8
1400  F00C     NOP
1402  6A04     CLRF average_temperature, ACCESS
1404  6A0A     CLRF larg, ACCESS
1406  A401     BTFSS ccp2mx, 2, ACCESS
1408  D008     BRA jANotNeg
140A  6C07     NEGF size, ACCESS
140C  1E08     COMF count, F, ACCESS
140E  1E09     COMF cval, F, ACCESS
1410  1E0A     COMF larg, F, ACCESS
1412  6AE8     CLRF WREG, ACCESS
1414  2208     ADDWFC count, F, ACCESS
1416  2209     ADDWFC cval, F, ACCESS
1418  220A     ADDWFC larg, F, ACCESS
141A  AC01     BTFSS ccp2mx, 6, ACCESS
141C  D008     BRA jWNotNeg
141E  6C13     NEGF n, ACCESS
1420  1E02     COMF total_temperature, F, ACCESS
1422  1E03     COMF flags, F, ACCESS
1424  1E04     COMF average_temperature, F, ACCESS
1426  6AE8     CLRF WREG, ACCESS
1428  2202     ADDWFC total_temperature, F, ACCESS
142A  2203     ADDWFC flags, F, ACCESS
142C  2204     ADDWFC average_temperature, F, ACCESS
142E  6A06     CLRF have_precision, ACCESS
1430  5211     MOVF ramstring, F, ACCESS
1432  E007     BZ jShiftDone
1434  340A     RLCF larg, W, ACCESS
1436  3209     RRCF cval, F, ACCESS
1438  3208     RRCF count, F, ACCESS
143A  3207     RRCF size, F, ACCESS
143C  3206     RRCF have_precision, F, ACCESS
143E  2E11     DECFSZ ramstring, F, ACCESS
1440  D7F9     BRA jShiftLoop
1442  5007     MOVF size, W, ACCESS
1444  2613     ADDWF n, F, ACCESS
1446  5008     MOVF count, W, ACCESS
1448  2202     ADDWFC total_temperature, F, ACCESS
144A  5009     MOVF cval, W, ACCESS
144C  2203     ADDWFC flags, F, ACCESS
144E  500A     MOVF larg, W, ACCESS
1450  2204     ADDWFC average_temperature, F, ACCESS
1452  C006     MOVFF have_precision, 0x12
1454  F012     NOP
1456  9E01     BCF ccp2mx, 7, ACCESS
1458  AE04     BTFSS average_temperature, 7, ACCESS
145A  D00B     BRA jSignDone
145C  6C12     NEGF 0x12, ACCESS
145E  1E13     COMF n, F, ACCESS
1460  1E02     COMF total_temperature, F, ACCESS
1462  1E03     COMF flags, F, ACCESS
1464  1E04     COMF average_temperature, F, ACCESS
1466  6AE8     CLRF WREG, ACCESS
1468  2213     ADDWFC n, F, ACCESS
146A  2202     ADDWFC total_temperature, F, ACCESS
146C  2203     ADDWFC flags, F, ACCESS
146E  2204     ADDWFC average_temperature, F, ACCESS
1470  8E01     BSF ccp2mx, 7, ACCESS
1472  A004     BTFSS average_temperature, 0, ACCESS
1474  D006     BRA jFinalSign
1476  80D8     BSF STATUS, 0, ACCESS
1478  3203     RRCF flags, F, ACCESS
147A  3202     RRCF total_temperature, F, ACCESS
147C  3213     RRCF n, F, ACCESS
147E  3212     RRCF 0x12, F, ACCESS
1480  2A10     INCF 0x10, F, ACCESS
1482  C010     MOVFF 0x10, average_temperature
1484  F004     NOP
1486  EF48     GOTO 0x1890
1488  F00C     NOP
---  E:/3.46/pic18-lt/cxx-framework/src/traditional/math/UnpackFP.asm  ----------------------------------
1908  3609     RLCF cval, F, ACCESS
190A  360A     RLCF larg, F, ACCESS
190C  E302     BNC jUnpkA1
190E  8401     BSF ccp2mx, 2, ACCESS
1910  7E01     BTG ccp2mx, 7, ACCESS
1912  E106     BNZ jUnpkANZ
1914  8001     BSF ccp2mx, 0, ACCESS
1916  6A0A     CLRF larg, ACCESS
1918  6A09     CLRF cval, ACCESS
191A  6A08     CLRF count, ACCESS
191C  6A07     CLRF size, ACCESS
191E  0012     RETURN 0
1920  280A     INCF larg, W, ACCESS
1922  E003     BZ jUnpkA2
1924  80D8     BSF STATUS, 0, ACCESS
1926  3209     RRCF cval, F, ACCESS
1928  0012     RETURN 0
192A  90D8     BCF STATUS, 0, ACCESS
192C  3209     RRCF cval, F, ACCESS
192E  E102     BNZ jUnpkNaN
1930  8201     BSF ccp2mx, 1, ACCESS
1932  0012     RETURN 0
1934  8601     BSF ccp2mx, 3, ACCESS
1936  0012     RETURN 0
1938  360E     RLCF romstring, F, ACCESS
193A  360F     RLCF 0xF, F, ACCESS
193C  E302     BNC jUnpkB1
193E  8C01     BSF ccp2mx, 6, ACCESS
1940  7E01     BTG ccp2mx, 7, ACCESS
1942  E106     BNZ jUnpkBNZ
1944  8801     BSF ccp2mx, 4, ACCESS
1946  6A0F     CLRF 0xF, ACCESS
1948  6A0E     CLRF romstring, ACCESS
194A  6A0D     CLRF 0xD, ACCESS
194C  6A0C     CLRF 0xC, ACCESS
194E  0012     RETURN 0
1950  280F     INCF 0xF, W, ACCESS
1952  E003     BZ jUnpkB2
1954  80D8     BSF STATUS, 0, ACCESS
1956  320E     RRCF romstring, F, ACCESS
1958  0012     RETURN 0
195A  90D8     BCF STATUS, 0, ACCESS
195C  320E     RRCF romstring, F, ACCESS
195E  E1EA     BNZ jUnpkNaN
1960  8A01     BSF ccp2mx, 5, ACCESS
1962  0012     RETURN 0
---  E:/3.46/pic18-lt/cxx-framework/src/traditional/delays/d1ktcyx.asm  ---------------------------------
31DC  0EFF     MOVLW 0xFF
31DE  50E3     MOVF PLUSW1, W, ACCESS
31E0  6E1D     MOVWF DelayCounter1, ACCESS
31E2  0E48     MOVLW 0x48
31E4  D001     BRA D1K_1
31E6  0E4C     MOVLW 0x4C
31E8  6EE7     MOVWF INDF1, ACCESS
31EA  2EE7     DECFSZ INDF1, F, ACCESS
31EC  D7FE     BRA 0x31EA
31EE  6AE7     CLRF INDF1, ACCESS
31F0  2EE7     DECFSZ INDF1, F, ACCESS
31F2  D7FE     BRA 0x31F0
31F4  2E1D     DECFSZ DelayCounter1, F, ACCESS
31F6  D7F7     BRA D1Kx
31F8  0000     NOP
31FA  0012     RETURN 0
---  E:/3.46/pic18-lt/cxx-framework/src/traditional/delays/d10tcyx.asm  ---------------------------------
3254  0EFF     MOVLW 0xFF
3256  50E3     MOVF PLUSW1, W, ACCESS
3258  4EE8     DCFSNZ WREG, F, ACCESS
325A  0012     RETURN 0
325C  0000     NOP
325E  D000     BRA _D10TCYXCODE_000C
3260  D000     BRA _D10TCYXCODE_000E
3262  D000     BRA D10_1
3264  2EE8     DECFSZ WREG, F, ACCESS
3266  D7FA     BRA D10x
3268  0012     RETURN 0
---  E:/3.46/pic18-lt/cxx-framework/src/traditional/delays/d10ktcyx.asm  --------------------------------
315E  0EFF     MOVLW 0xFF
3160  50E3     MOVF PLUSW1, W, ACCESS
3162  6E1D     MOVWF DelayCounter1, ACCESS
3164  0EEF     MOVLW 0xEF
3166  D001     BRA D10K_1
3168  0EF3     MOVLW 0xF3
316A  6EE7     MOVWF INDF1, ACCESS
316C  2EE7     DECFSZ INDF1, F, ACCESS
316E  EFB6     GOTO 0x316C
3170  F018     NOP
3172  0E0C     MOVLW 0xC
3174  6E1C     MOVWF DelayCounter2, ACCESS
3176  6AE7     CLRF INDF1, ACCESS
3178  2EE7     DECFSZ INDF1, F, ACCESS
317A  EFBC     GOTO 0x3178
317C  F018     NOP
317E  2E1C     DECFSZ DelayCounter2, F, ACCESS
3180  EFBB     GOTO 0x3176
3182  F018     NOP
3184  2E1D     DECFSZ DelayCounter1, F, ACCESS
3186  EFB4     GOTO 0x3168
3188  F018     NOP
318A  0012     RETURN 0
---  E:/3.46/pic18-lt/cxx-framework/src/pmc_common/USART/_usartpc.asm  ----------------------------------
3238  0EFF     MOVLW 0xFF
323A  50E3     MOVF PLUSW1, W, ACCESS
323C  BAAC     BTFSC TXSTA, 5, ACCESS
323E  D004     BRA loop
3240  6AAF     CLRF SPBRG, ACCESS
3242  8EAB     BSF RCSTA, 7, ACCESS
3244  8AAC     BSF TXSTA, 5, ACCESS
3246  9C94     BCF TRISC, 6, ACCESS
3248  A2AC     BTFSS TXSTA, 1, ACCESS
324A  D7FE     BRA loop
324C  6EAD     MOVWF TXREG, ACCESS
324E  6EF3     MOVWF PROD, ACCESS
3250  6AF4     CLRF PRODH, ACCESS
3252  0012     RETURN 0
---  E:/3.46/pic18-lt/cxx-framework/src/pmc_common/Timers/t2open.c  -------------------------------------
30C2  CFD9     MOVFF FSR2, POSTINC1
30C4  FFE6     NOP
30C6  CFDA     MOVFF FSR2H, POSTINC1
30C8  FFE6     NOP
30CA  CFE1     MOVFF FSR1, FSR2
30CC  FFD9     NOP
30CE  CFE2     MOVFF FSR1H, FSR2H
30D0  FFDA     NOP
30D2  0EFD     MOVLW 0xFD
30D4  50DB     MOVF PLUSW2, W, ACCESS
30D6  0BFB     ANDLW 0xFB
30D8  6ECA     MOVWF T2CON, ACCESS
30DA  6ACC     CLRF TMR2, ACCESS
30DC  929E     BCF PIR1, 1, ACCESS
30DE  0EFD     MOVLW 0xFD
30E0  AEDB     BTFSS PLUSW2, 7, ACCESS
30E2  D002     BRA 0x30E8
30E4  829D     BSF PIE1, 1, ACCESS
30E6  D001     BRA 0x30EA
30E8  929D     BCF PIE1, 1, ACCESS
30EA  84CA     BSF T2CON, 2, ACCESS
30EC  52E5     MOVF POSTDEC1, F, ACCESS
30EE  CFE5     MOVFF POSTDEC1, FSR2H
30F0  FFDA     NOP
30F2  CFE7     MOVFF INDF1, FSR2
30F4  FFD9     NOP
30F6  0012     RETURN 0
---  E:/3.46/pic18-lt/cxx-framework/src/pmc_common/Timers/t1write.c  ------------------------------------
301A  CFD9     MOVFF FSR2, POSTINC1
301C  FFE6     NOP
301E  CFDA     MOVFF FSR2H, POSTINC1
3020  FFE6     NOP
3022  CFE1     MOVFF FSR1, FSR2
3024  FFD9     NOP
3026  CFE2     MOVFF FSR1H, FSR2H
3028  FFDA     NOP
302A  52E6     MOVF POSTINC1, F, ACCESS
302C  52E6     MOVF POSTINC1, F, ACCESS
302E  0EFC     MOVLW 0xFC
3030  CFDB     MOVFF PLUSW2, POSTINC2
3032  FFDE     NOP
3034  CFDB     MOVFF PLUSW2, POSTDEC2
3036  FFDD     NOP
3038  0E01     MOVLW 0x1
303A  50DB     MOVF PLUSW2, W, ACCESS
303C  6ECF     MOVWF TMR1H, ACCESS
303E  50DF     MOVF INDF2, W, ACCESS
3040  6ECE     MOVWF TMR1, ACCESS
3042  52E5     MOVF POSTDEC1, F, ACCESS
3044  52E5     MOVF POSTDEC1, F, ACCESS
3046  52E5     MOVF POSTDEC1, F, ACCESS
3048  CFE5     MOVFF POSTDEC1, FSR2H
304A  FFDA     NOP
304C  CFE7     MOVFF INDF1, FSR2
304E  FFD9     NOP
3050  0012     RETURN 0
---  E:/3.46/pic18-lt/cxx-framework/src/pmc_common/Timers/t1open.c  -------------------------------------
2FD8  CFD9     MOVFF FSR2, POSTINC1
2FDA  FFE6     NOP
2FDC  CFDA     MOVFF FSR2H, POSTINC1
2FDE  FFE6     NOP
2FE0  CFE1     MOVFF FSR1, FSR2
2FE2  FFD9     NOP
2FE4  CFE2     MOVFF FSR1H, FSR2H
2FE6  FFDA     NOP
2FE8  0EFD     MOVLW 0xFD
2FEA  50DB     MOVF PLUSW2, W, ACCESS
2FEC  0B7E     ANDLW 0x7E
2FEE  6ECD     MOVWF T1CON, ACCESS
2FF0  0EFD     MOVLW 0xFD
2FF2  ACDB     BTFSS PLUSW2, 6, ACCESS
2FF4  D002     BRA 0x2FFA
2FF6  8ECD     BSF T1CON, 7, ACCESS
2FF8  D001     BRA 0x2FFC
2FFA  9ECD     BCF T1CON, 7, ACCESS
2FFC  6ACF     CLRF TMR1H, ACCESS
2FFE  6ACE     CLRF TMR1, ACCESS
3000  909E     BCF PIR1, 0, ACCESS
3002  AEDB     BTFSS PLUSW2, 7, ACCESS
3004  D002     BRA 0x300A
3006  809D     BSF PIE1, 0, ACCESS
3008  D001     BRA 0x300C
300A  909D     BCF PIE1, 0, ACCESS
300C  80CD     BSF T1CON, 0, ACCESS
300E  52E5     MOVF POSTDEC1, F, ACCESS
3010  CFE5     MOVFF POSTDEC1, FSR2H
3012  FFDA     NOP
3014  CFE7     MOVFF INDF1, FSR2
3016  FFD9     NOP
3018  0012     RETURN 0
---  E:/3.46/pic18-lt/cxx-framework/src/pmc_common/Timers/t0write.c  ------------------------------------
3052  CFD9     MOVFF FSR2, POSTINC1
3054  FFE6     NOP
3056  CFDA     MOVFF FSR2H, POSTINC1
3058  FFE6     NOP
305A  CFE1     MOVFF FSR1, FSR2
305C  FFD9     NOP
305E  CFE2     MOVFF FSR1H, FSR2H
3060  FFDA     NOP
3062  52E6     MOVF POSTINC1, F, ACCESS
3064  52E6     MOVF POSTINC1, F, ACCESS
3066  0EFC     MOVLW 0xFC
3068  CFDB     MOVFF PLUSW2, POSTINC2
306A  FFDE     NOP
306C  CFDB     MOVFF PLUSW2, POSTDEC2
306E  FFDD     NOP
3070  0E01     MOVLW 0x1
3072  50DB     MOVF PLUSW2, W, ACCESS
3074  6ED7     MOVWF TMR0H, ACCESS
3076  50DF     MOVF INDF2, W, ACCESS
3078  6ED6     MOVWF TMR0, ACCESS
307A  52E5     MOVF POSTDEC1, F, ACCESS
307C  52E5     MOVF POSTDEC1, F, ACCESS
307E  52E5     MOVF POSTDEC1, F, ACCESS
3080  CFE5     MOVFF POSTDEC1, FSR2H
3082  FFDA     NOP
3084  CFE7     MOVFF INDF1, FSR2
3086  FFD9     NOP
3088  0012     RETURN 0
---  E:/3.46/pic18-lt/cxx-framework/src/pmc_common/Timers/t0open.c  -------------------------------------
308A  CFD9     MOVFF FSR2, POSTINC1
308C  FFE6     NOP
308E  CFDA     MOVFF FSR2H, POSTINC1
3090  FFE6     NOP
3092  CFE1     MOVFF FSR1, FSR2
3094  FFD9     NOP
3096  CFE2     MOVFF FSR1H, FSR2H
3098  FFDA     NOP
309A  0EFD     MOVLW 0xFD
309C  50DB     MOVF PLUSW2, W, ACCESS
309E  0B7F     ANDLW 0x7F
30A0  6ED5     MOVWF T0CON, ACCESS
30A2  6AD7     CLRF TMR0H, ACCESS
30A4  6AD6     CLRF TMR0, ACCESS
30A6  94F2     BCF INTCON, 2, ACCESS
30A8  0EFD     MOVLW 0xFD
30AA  AEDB     BTFSS PLUSW2, 7, ACCESS
30AC  D002     BRA 0x30B2
30AE  8AF2     BSF INTCON, 5, ACCESS
30B0  D001     BRA 0x30B4
30B2  9AF2     BCF INTCON, 5, ACCESS
30B4  8ED5     BSF T0CON, 7, ACCESS
30B6  52E5     MOVF POSTDEC1, F, ACCESS
30B8  CFE5     MOVFF POSTDEC1, FSR2H
30BA  FFDA     NOP
30BC  CFE7     MOVFF INDF1, FSR2
30BE  FFD9     NOP
30C0  0012     RETURN 0
---  E:/3.46/pic18-lt/cxx-framework/src/pmc_common/PWM/pw1setdc.c  --------------------------------------
2C3A  CFD9     MOVFF FSR2, POSTINC1
2C3C  FFE6     NOP
2C3E  CFDA     MOVFF FSR2H, POSTINC1
2C40  FFE6     NOP
2C42  CFE1     MOVFF FSR1, FSR2
2C44  FFD9     NOP
2C46  CFE2     MOVFF FSR1H, FSR2H
2C48  FFDA     NOP
2C4A  52E6     MOVF POSTINC1, F, ACCESS
2C4C  52E6     MOVF POSTINC1, F, ACCESS
2C4E  0EFC     MOVLW 0xFC
2C50  CFDB     MOVFF PLUSW2, __tmp_0
2C52  F014     NOP
2C54  0EFD     MOVLW 0xFD
2C56  CFDB     MOVFF PLUSW2, digit_cnt
2C58  F015     NOP
2C5A  0E06     MOVLW 0x6
2C5C  90D8     BCF STATUS, 0, ACCESS
2C5E  3614     RLCF __tmp_0, F, ACCESS
2C60  3615     RLCF digit_cnt, F, ACCESS
2C62  04E8     DECF WREG, W, ACCESS
2C64  E1FB     BNZ 0x2C5C
2C66  C014     MOVFF __tmp_0, POSTINC2
2C68  FFDE     NOP
2C6A  C015     MOVFF digit_cnt, POSTDEC2
2C6C  FFDD     NOP
2C6E  0E01     MOVLW 0x1
2C70  50DB     MOVF PLUSW2, W, ACCESS
2C72  6EBE     MOVWF CCPR1, ACCESS
2C74  50DF     MOVF INDF2, W, ACCESS
2C76  40E8     RRNCF WREG, W, ACCESS
2C78  40E8     RRNCF WREG, W, ACCESS
2C7A  0B3F     ANDLW 0x3F
2C7C  0B30     ANDLW 0x30
2C7E  6E14     MOVWF __tmp_0, ACCESS
2C80  0ECF     MOVLW 0xCF
2C82  14BD     ANDWF CCP1CON, W, ACCESS
2C84  1014     IORWF __tmp_0, W, ACCESS
2C86  6EBD     MOVWF CCP1CON, ACCESS
2C88  52E5     MOVF POSTDEC1, F, ACCESS
2C8A  52E5     MOVF POSTDEC1, F, ACCESS
2C8C  52E5     MOVF POSTDEC1, F, ACCESS
2C8E  CFE5     MOVFF POSTDEC1, FSR2H
2C90  FFDA     NOP
2C92  CFE7     MOVFF INDF1, FSR2
2C94  FFD9     NOP
2C96  0012     RETURN 0
---  E:/3.46/pic18-lt/cxx-framework/src/pmc_common/PWM/pw1open.c  ---------------------------------------
312E  CFD9     MOVFF FSR2, POSTINC1
3130  FFE6     NOP
3132  CFDA     MOVFF FSR2H, POSTINC1
3134  FFE6     NOP
3136  CFE1     MOVFF FSR1, FSR2
3138  FFD9     NOP
313A  CFE2     MOVFF FSR1H, FSR2H
313C  FFDA     NOP
313E  0E0C     MOVLW 0xC
3140  12BD     IORWF CCP1CON, F, ACCESS
3142  9494     BCF TRISC, 2, ACCESS
3144  94CA     BCF T2CON, 2, ACCESS
3146  0EFD     MOVLW 0xFD
3148  50DB     MOVF PLUSW2, W, ACCESS
314A  6ECB     MOVWF PR2, ACCESS
314C  84CA     BSF T2CON, 2, ACCESS
314E  52E5     MOVF POSTDEC1, F, ACCESS
3150  CFE5     MOVFF POSTDEC1, FSR2H
3152  FFDA     NOP
3154  CFE7     MOVFF INDF1, FSR2
3156  FFD9     NOP
3158  0012     RETURN 0
315A  9494     BCF TRISC, 2, ACCESS
315C  0012     RETURN 0
---  E:/3.46/pic18-lt/cxx-framework/src/pmc_common/PWM/pw1close.c  --------------------------------------
000E  6ABD     CLRF CCP1CON, ACCESS
0010  0012     RETURN 0
---  E:/3.46/pic18-lt/cxx-framework/src/pmc_common/CCP/cp2read.c  ---------------------------------------
2F0A  CFD9     MOVFF FSR2, POSTINC1
2F0C  FFE6     NOP
2F0E  CFDA     MOVFF FSR2H, POSTINC1
2F10  FFE6     NOP
2F12  CFE1     MOVFF FSR1, FSR2
2F14  FFD9     NOP
2F16  CFE2     MOVFF FSR1H, FSR2H
2F18  FFDA     NOP
2F1A  52E6     MOVF POSTINC1, F, ACCESS
2F1C  52E6     MOVF POSTINC1, F, ACCESS
2F1E  0104     MOVLB 0x4
2F20  9364     BCF 0x64, 1, BANKED
2F22  B0A1     BTFSC PIR2, 0, ACCESS
2F24  8364     BSF 0x64, 1, BANKED
2F26  50BB     MOVF CCPR2, W, ACCESS
2F28  6EDF     MOVWF INDF2, ACCESS
2F2A  0E01     MOVLW 0x1
2F2C  CFBC     MOVFF CCPR2H, PLUSW2
2F2E  FFDB     NOP
2F30  CFDE     MOVFF POSTINC2, __tmp_0
2F32  F014     NOP
2F34  CFDD     MOVFF POSTDEC2, digit_cnt
2F36  F015     NOP
2F38  C014     MOVFF __tmp_0, PROD
2F3A  FFF3     NOP
2F3C  C015     MOVFF digit_cnt, PRODH
2F3E  FFF4     NOP
2F40  52E5     MOVF POSTDEC1, F, ACCESS
2F42  52E5     MOVF POSTDEC1, F, ACCESS
2F44  52E5     MOVF POSTDEC1, F, ACCESS
2F46  CFE5     MOVFF POSTDEC1, FSR2H
2F48  FFDA     NOP
2F4A  CFE7     MOVFF INDF1, FSR2
2F4C  FFD9     NOP
2F4E  0012     RETURN 0
---  E:/3.46/pic18-lt/cxx-framework/src/pmc_common/CCP/cp2open.c  ---------------------------------------
2C98  CFD9     MOVFF FSR2, POSTINC1
2C9A  FFE6     NOP
2C9C  CFDA     MOVFF FSR2H, POSTINC1
2C9E  FFE6     NOP
2CA0  CFE1     MOVFF FSR1, FSR2
2CA2  FFD9     NOP
2CA4  CFE2     MOVFF FSR1H, FSR2H
2CA6  FFDA     NOP
2CA8  52E6     MOVF POSTINC1, F, ACCESS
2CAA  52E6     MOVF POSTINC1, F, ACCESS
2CAC  0EFD     MOVLW 0xFD
2CAE  50DB     MOVF PLUSW2, W, ACCESS
2CB0  0B0F     ANDLW 0xF
2CB2  6EBA     MOVWF CCP2CON, ACCESS
2CB4  0E05     MOVLW 0x5
2CB6  6EF6     MOVWF TBLPTR, ACCESS
2CB8  6AF7     CLRF TBLPTRH, ACCESS
2CBA  0E30     MOVLW 0x30
2CBC  6EF8     MOVWF TBLPTRU, ACCESS
2CBE  0008     TBLRD*
2CC0  50F5     MOVF TABLAT, W, ACCESS
2CC2  0B01     ANDLW 0x1
2CC4  E003     BZ 0x2CCC
2CC6  0E01     MOVLW 0x1
2CC8  68DB     SETF PLUSW2, ACCESS
2CCA  D002     BRA 0x2CD0
2CCC  0E01     MOVLW 0x1
2CCE  6ADB     CLRF PLUSW2, ACCESS
2CD0  0EFD     MOVLW 0xFD
2CD2  AEDB     BTFSS PLUSW2, 7, ACCESS
2CD4  D002     BRA 0x2CDA
2CD6  90A1     BCF PIR2, 0, ACCESS
2CD8  80A0     BSF PIE2, 0, ACCESS
2CDA  0E01     MOVLW 0x1
2CDC  50DB     MOVF PLUSW2, W, ACCESS
2CDE  E002     BZ 0x2CE4
2CE0  8294     BSF TRISC, 1, ACCESS
2CE2  D001     BRA 0x2CE6
2CE4  8693     BSF TRISB, 3, ACCESS
2CE6  52E5     MOVF POSTDEC1, F, ACCESS
2CE8  52E5     MOVF POSTDEC1, F, ACCESS
2CEA  52E5     MOVF POSTDEC1, F, ACCESS
2CEC  CFE5     MOVFF POSTDEC1, FSR2H
2CEE  FFDA     NOP
2CF0  CFE7     MOVFF INDF1, FSR2
2CF2  FFD9     NOP
2CF4  0012     RETURN 0
---  C:/MPLabXProjects/Group_Project/ecng3006-project/Menu/writdata.c  ----------------------------------
1:             #include <p18cxxx.h>
2:             #include "xlcd.h"
3:             
4:             /********************************************************************
5:             *       Function Name:  WriteDataXLCD                               *
6:             *       Return Value:   void                                        *
7:             *       Parameters:     data: data byte to be written to LCD        *
8:             *       Description:    This routine writes a data byte to the      *
9:             *                       Hitachi HD44780 LCD controller. The user    *
10:            *                       must check to see if the LCD controller is  *
11:            *                       busy before calling this routine. The data  *
12:            *                       is written to the character generator RAM or*
13:            *                       the display data RAM depending on what the  *
14:            *                       previous SetxxRamAddr routine was called.   *
15:            ********************************************************************/
16:            void WriteDataXLCD(char data)
2DE0  CFD9     MOVFF FSR2, POSTINC1
2DE2  FFE6     NOP
2DE4  CFE1     MOVFF FSR1, FSR2
2DE6  FFD9     NOP
17:            {
18:            #ifdef BIT8                             // 8-bit interface
19:                    TRIS_DATA_PORT = 0;             // Make port output
20:                    DATA_PORT = data;               // Write data to port
21:                    RS_PIN = 1;                     // Set control bits
22:                    RW_PIN = 0;
23:                    DelayFor18TCY();
24:                    E_PIN = 1;                      // Clock data into LCD
25:                    DelayFor18TCY();
26:                    E_PIN = 0;
27:                    RS_PIN = 0;                     // Reset control bits
28:                    TRIS_DATA_PORT = 0xff;          // Make port input
29:            #else                                   // 4-bit interface
30:            #ifdef UPPER                            // Upper nibble interface
31:                    TRIS_DATA_PORT &= 0x0f;
2DE8  0E0F     MOVLW 0xF
2DEA  1695     ANDWF TRISD, F, ACCESS
32:                    DATA_PORT &= 0x0f;
2DEC  1683     ANDWF PORTD, F, ACCESS
33:                    DATA_PORT |= data&0xf0;
2DEE  0EFE     MOVLW 0xFE
2DF0  50DB     MOVF PLUSW2, W, ACCESS
2DF2  0BF0     ANDLW 0xF0
2DF4  1283     IORWF PORTD, F, ACCESS
34:            #else                                   // Lower nibble interface
35:                    TRIS_DATA_PORT &= 0xf0;
36:                    DATA_PORT &= 0xf0;
37:                    DATA_PORT |= ((data>>4)&0x0f);
38:            #endif
39:                    RS_PIN = 1;                     // Set control bits
2DF6  828C     BSF LATD, 1, ACCESS
40:                    RW_PIN = 0;
2DF8  948C     BCF LATD, 2, ACCESS
41:                    DelayFor18TCY();
2DFA  EC17     CALL 0x262E, 0
2DFC  F013     NOP
42:                    E_PIN = 1;                      // Clock nibble into LCD
2DFE  808C     BSF LATD, 0, ACCESS
43:                    DelayFor18TCY();
2E00  EC17     CALL 0x262E, 0
2E02  F013     NOP
44:                    E_PIN = 0;
2E04  908C     BCF LATD, 0, ACCESS
45:            #ifdef UPPER                            // Upper nibble interface
46:                    DATA_PORT &= 0x0f;
2E06  0E0F     MOVLW 0xF
2E08  1683     ANDWF PORTD, F, ACCESS
47:                    DATA_PORT |= ((data<<4)&0xf0);
2E0A  0EFE     MOVLW 0xFE
2E0C  38DB     SWAPF PLUSW2, W, ACCESS
2E0E  0BF0     ANDLW 0xF0
2E10  0BF0     ANDLW 0xF0
2E12  1283     IORWF PORTD, F, ACCESS
48:            #else                                   // Lower nibble interface
49:                    DATA_PORT &= 0xf0;
50:                    DATA_PORT |= (data&0x0f);
51:            #endif
52:                    DelayFor18TCY();
2E14  EC17     CALL 0x262E, 0
2E16  F013     NOP
53:                    E_PIN = 1;                      // Clock nibble into LCD
2E18  808C     BSF LATD, 0, ACCESS
54:                    DelayFor18TCY();
2E1A  EC17     CALL 0x262E, 0
2E1C  F013     NOP
55:                    E_PIN = 0;
2E1E  908C     BCF LATD, 0, ACCESS
56:            #ifdef UPPER                            // Upper nibble interface
57:                    TRIS_DATA_PORT |= 0xf0;
2E20  0EF0     MOVLW 0xF0
2E22  1295     IORWF TRISD, F, ACCESS
58:            #else                                   // Lower nibble interface
59:                    TRIS_DATA_PORT |= 0x0f;
60:            #endif
61:            #endif
62:                    return;
63:            }
2E24  52E5     MOVF POSTDEC1, F, ACCESS
2E26  CFE7     MOVFF INDF1, FSR2
2E28  FFD9     NOP
2E2A  0012     RETURN 0
64:            
---  C:/MPLabXProjects/Group_Project/ecng3006-project/Menu/wcmdxlcd.c  ----------------------------------
1:             #include <p18cxxx.h>
2:             #include "xlcd.h"
3:             
4:             /********************************************************************
5:             *       Function Name:  WriteCmdXLCD                                *
6:             *       Return Value:   void                                        *
7:             *       Parameters:     cmd: command to send to LCD                 *
8:             *       Description:    This routine writes a command to the Hitachi*
9:             *                       HD44780 LCD controller. The user must check *
10:            *                       to see if the LCD controller is busy before *
11:            *                       calling this routine.                       *
12:            ********************************************************************/
13:            void WriteCmdXLCD(unsigned char cmd)
2E2C  CFD9     MOVFF FSR2, POSTINC1
2E2E  FFE6     NOP
2E30  CFE1     MOVFF FSR1, FSR2
2E32  FFD9     NOP
14:            {
15:            #ifdef BIT8                             // 8-bit interface
16:                    TRIS_DATA_PORT = 0;             // Data port output
17:                    DATA_PORT = cmd;                // Write command to data port
18:                    RW_PIN = 0;                     // Set the control signals
19:                    RS_PIN = 0;                     // for sending a command
20:                    DelayFor18TCY();
21:                    E_PIN = 1;                      // Clock the command in
22:                    DelayFor18TCY();
23:                    E_PIN = 0;
24:                    DelayFor18TCY();
25:                    TRIS_DATA_PORT = 0xff;          // Data port input
26:            #else                                   // 4-bit interface
27:            #ifdef UPPER                            // Upper nibble interface
28:                    TRIS_DATA_PORT &= 0x0f;
2E34  0E0F     MOVLW 0xF
2E36  1695     ANDWF TRISD, F, ACCESS
29:                    DATA_PORT &= 0x0f;
2E38  1683     ANDWF PORTD, F, ACCESS
30:                    DATA_PORT |= cmd&0xf0;
2E3A  0EFE     MOVLW 0xFE
2E3C  50DB     MOVF PLUSW2, W, ACCESS
2E3E  0BF0     ANDLW 0xF0
2E40  1283     IORWF PORTD, F, ACCESS
31:            #else                                   // Lower nibble interface
32:                    TRIS_DATA_PORT &= 0xf0;
33:                    DATA_PORT &= 0xf0;
34:                    DATA_PORT |= (cmd>>4)&0x0f;
35:            #endif
36:                    RW_PIN = 0;                     // Set control signals for command
2E42  948C     BCF LATD, 2, ACCESS
37:                    RS_PIN = 0;
2E44  928C     BCF LATD, 1, ACCESS
38:                    DelayFor18TCY();
2E46  EC17     CALL 0x262E, 0
2E48  F013     NOP
39:                    E_PIN = 1;                      // Clock command in
2E4A  808C     BSF LATD, 0, ACCESS
40:                    DelayFor18TCY();
2E4C  EC17     CALL 0x262E, 0
2E4E  F013     NOP
41:                    E_PIN = 0;
2E50  908C     BCF LATD, 0, ACCESS
42:            #ifdef UPPER                            // Upper nibble interface
43:                    DATA_PORT &= 0x0f;
2E52  0E0F     MOVLW 0xF
2E54  1683     ANDWF PORTD, F, ACCESS
44:                    DATA_PORT |= (cmd<<4)&0xf0;
2E56  0EFE     MOVLW 0xFE
2E58  38DB     SWAPF PLUSW2, W, ACCESS
2E5A  0BF0     ANDLW 0xF0
2E5C  0BF0     ANDLW 0xF0
2E5E  1283     IORWF PORTD, F, ACCESS
45:            #else                                   // Lower nibble interface
46:                    DATA_PORT &= 0xf0;
47:                    DATA_PORT |= cmd&0x0f;
48:            #endif
49:                    DelayFor18TCY();
2E60  EC17     CALL 0x262E, 0
2E62  F013     NOP
50:                    E_PIN = 1;                      // Clock command in
2E64  808C     BSF LATD, 0, ACCESS
51:                    DelayFor18TCY();
2E66  EC17     CALL 0x262E, 0
2E68  F013     NOP
52:                    E_PIN = 0;
2E6A  908C     BCF LATD, 0, ACCESS
53:            #ifdef UPPER                            // Make data nibble input
54:                    TRIS_DATA_PORT |= 0xf0;
2E6C  0EF0     MOVLW 0xF0
2E6E  1295     IORWF TRISD, F, ACCESS
55:            #else
56:                    TRIS_DATA_PORT |= 0x0f;
57:            #endif
58:            #endif
59:                    return;
60:            }
2E70  52E5     MOVF POSTDEC1, F, ACCESS
2E72  CFE7     MOVFF INDF1, FSR2
2E74  FFD9     NOP
2E76  0012     RETURN 0
61:            
---  C:/MPLabXProjects/Group_Project/ecng3006-project/Menu/setddram.c  ----------------------------------
1:             #include <p18cxxx.h>
2:             #include "xlcd.h"
3:             
4:             /********************************************************************
5:             *       Function Name:  SetDDRamAddr                                *
6:             *       Return Value:   void                                        *
7:             *       Parameters:     CGaddr: display data address                *
8:             *       Description:    This routine sets the display data address  *
9:             *                       of the Hitachi HD44780 LCD controller. The  *
10:            *                       user must check to see if the LCD controller*
11:            *                       is busy before calling this routine.        *
12:            ********************************************************************/
13:            void SetDDRamAddr(unsigned char DDaddr)
2CF6  CFD9     MOVFF FSR2, POSTINC1
2CF8  FFE6     NOP
2CFA  CFE1     MOVFF FSR1, FSR2
2CFC  FFD9     NOP
14:            {
15:            #ifdef BIT8                                     // 8-bit interface
16:                    TRIS_DATA_PORT = 0;                     // Make port output
17:                    DATA_PORT = DDaddr | 0b10000000;        // Write cmd and address to port
18:                    RW_PIN = 0;                             // Set the control bits
19:                    RS_PIN = 0;
20:                    DelayFor18TCY();
21:                    E_PIN = 1;                              // Clock the cmd and address in
22:                    DelayFor18TCY();
23:                    E_PIN = 0;
24:                    DelayFor18TCY();
25:                    TRIS_DATA_PORT = 0xff;                  // Make port input
26:            #else                                           // 4-bit interface
27:            #ifdef UPPER                                    // Upper nibble  interface
28:                    TRIS_DATA_PORT &= 0x0f;                 // Make port output
2CFE  0E0F     MOVLW 0xF
2D00  1695     ANDWF TRISD, F, ACCESS
29:                    DATA_PORT &= 0x0f;                      // and write upper nibble
2D02  1683     ANDWF PORTD, F, ACCESS
30:                    DATA_PORT |= ((DDaddr | 0b10000000) & 0xf0);
2D04  0EFE     MOVLW 0xFE
2D06  50DB     MOVF PLUSW2, W, ACCESS
2D08  0980     IORLW 0x80
2D0A  0BF0     ANDLW 0xF0
2D0C  1283     IORWF PORTD, F, ACCESS
31:            #else                                           // Lower nibble interface
32:                    TRIS_DATA_PORT &= 0xf0;                 // Make port output
33:                    DATA_PORT &= 0xf0;                      // and write upper nibble
34:                    DATA_PORT |= (((DDaddr | 0b10000000)>>4) & 0x0f);
35:            #endif
36:                    RW_PIN = 0;                             // Set control bits
2D0E  948C     BCF LATD, 2, ACCESS
37:                    RS_PIN = 0;
2D10  928C     BCF LATD, 1, ACCESS
38:                    DelayFor18TCY();
2D12  EC17     CALL 0x262E, 0
2D14  F013     NOP
39:                    E_PIN = 1;                              // Clock the cmd and address in
2D16  808C     BSF LATD, 0, ACCESS
40:                    DelayFor18TCY();
2D18  EC17     CALL 0x262E, 0
2D1A  F013     NOP
41:                    E_PIN = 0;
2D1C  908C     BCF LATD, 0, ACCESS
42:            #ifdef UPPER                                    // Upper nibble interface
43:                    DATA_PORT &= 0x0f;                      // Write lower nibble
2D1E  0E0F     MOVLW 0xF
2D20  1683     ANDWF PORTD, F, ACCESS
44:                    DATA_PORT |= ((DDaddr<<4)&0xf0);
2D22  0EFE     MOVLW 0xFE
2D24  38DB     SWAPF PLUSW2, W, ACCESS
2D26  0BF0     ANDLW 0xF0
2D28  0BF0     ANDLW 0xF0
2D2A  1283     IORWF PORTD, F, ACCESS
45:            #else                                           // Lower nibble interface
46:                    DATA_PORT &= 0xf0;                      // Write lower nibble
47:                    DATA_PORT |= (DDaddr&0x0f);
48:            #endif
49:                    DelayFor18TCY();
2D2C  EC17     CALL 0x262E, 0
2D2E  F013     NOP
50:                    E_PIN = 1;                              // Clock the cmd and address in
2D30  808C     BSF LATD, 0, ACCESS
51:                    DelayFor18TCY();
2D32  EC17     CALL 0x262E, 0
2D34  F013     NOP
52:                    E_PIN = 0;
2D36  908C     BCF LATD, 0, ACCESS
53:            #ifdef UPPER                                    // Upper nibble interface
54:                    TRIS_DATA_PORT |= 0xf0;                 // Make port input
2D38  0EF0     MOVLW 0xF0
2D3A  1295     IORWF TRISD, F, ACCESS
55:            #else                                           // Lower nibble interface
56:                    TRIS_DATA_PORT |= 0x0f;                 // Make port input
57:            #endif
58:            #endif
59:                    return;
60:            }
2D3C  52E5     MOVF POSTDEC1, F, ACCESS
2D3E  CFE7     MOVFF INDF1, FSR2
2D40  FFD9     NOP
2D42  0012     RETURN 0
61:            
---  C:/MPLabXProjects/Group_Project/ecng3006-project/Menu/setcgram.c  ----------------------------------
1:             #include <p18cxxx.h>
2:             #include "xlcd.h"
3:             
4:             /********************************************************************
5:             *       Function Name:  SetCGRamAddr                                *
6:             *       Return Value:   void                                        *
7:             *       Parameters:     CGaddr: character generator ram address     *
8:             *       Description:    This routine sets the character generator   *
9:             *                       address of the Hitachi HD44780 LCD          *
10:            *                       controller. The user must check to see if   *
11:            *                       the LCD controller is busy before calling   *
12:            *                       this routine.                               *
13:            ********************************************************************/
14:            void SetCGRamAddr(unsigned char CGaddr)
2D44  CFD9     MOVFF FSR2, POSTINC1
2D46  FFE6     NOP
2D48  CFE1     MOVFF FSR1, FSR2
2D4A  FFD9     NOP
15:            {
16:            #ifdef BIT8                                     // 8-bit interface
17:                    TRIS_DATA_PORT = 0;                     // Make data port ouput
18:                    DATA_PORT = CGaddr | 0b01000000;        // Write cmd and address to port
19:                    RW_PIN = 0;                             // Set control signals
20:                    RS_PIN = 0;
21:                    DelayFor18TCY();
22:                    E_PIN = 1;                              // Clock cmd and address in
23:                    DelayFor18TCY();
24:                    E_PIN = 0;
25:                    DelayFor18TCY();
26:                    TRIS_DATA_PORT = 0xff;                  // Make data port inputs
27:            #else                                           // 4-bit interface
28:            #ifdef UPPER                                    // Upper nibble interface
29:                    TRIS_DATA_PORT &= 0x0f;                 // Make nibble input
2D4C  0E0F     MOVLW 0xF
2D4E  1695     ANDWF TRISD, F, ACCESS
30:                    DATA_PORT &= 0x0f;                      // and write upper nibble
2D50  1683     ANDWF PORTD, F, ACCESS
31:                    DATA_PORT |= ((CGaddr | 0b01000000) & 0xf0);
2D52  0EFE     MOVLW 0xFE
2D54  50DB     MOVF PLUSW2, W, ACCESS
2D56  0940     IORLW 0x40
2D58  0BF0     ANDLW 0xF0
2D5A  1283     IORWF PORTD, F, ACCESS
32:            #else                                           // Lower nibble interface
33:                    TRIS_DATA_PORT &= 0xf0;                 // Make nibble input
34:                    DATA_PORT &= 0xf0;                      // and write upper nibble
35:                    DATA_PORT |= (((CGaddr |0b01000000)>>4) & 0x0f);
36:            #endif
37:                    RW_PIN = 0;                             // Set control signals
2D5C  948C     BCF LATD, 2, ACCESS
38:                    RS_PIN = 0;
2D5E  928C     BCF LATD, 1, ACCESS
39:                    DelayFor18TCY();
2D60  EC17     CALL 0x262E, 0
2D62  F013     NOP
40:                    E_PIN = 1;                              // Clock cmd and address in
2D64  808C     BSF LATD, 0, ACCESS
41:                    DelayFor18TCY();
2D66  EC17     CALL 0x262E, 0
2D68  F013     NOP
42:                    E_PIN = 0;
2D6A  908C     BCF LATD, 0, ACCESS
43:            #ifdef UPPER                                    // Upper nibble interface
44:                    DATA_PORT &= 0x0f;                      // Write lower nibble
2D6C  0E0F     MOVLW 0xF
2D6E  1683     ANDWF PORTD, F, ACCESS
45:                    DATA_PORT |= ((CGaddr<<4)&0xf0);
2D70  0EFE     MOVLW 0xFE
2D72  38DB     SWAPF PLUSW2, W, ACCESS
2D74  0BF0     ANDLW 0xF0
2D76  0BF0     ANDLW 0xF0
2D78  1283     IORWF PORTD, F, ACCESS
46:            #else                                           // Lower nibble interface
47:                    DATA_PORT &= 0xf0;                      // Write lower nibble
48:                    DATA_PORT |= (CGaddr&0x0f);
49:            #endif
50:                    DelayFor18TCY();
2D7A  EC17     CALL 0x262E, 0
2D7C  F013     NOP
51:                    E_PIN = 1;                              // Clock cmd and address in
2D7E  808C     BSF LATD, 0, ACCESS
52:                    DelayFor18TCY();
2D80  EC17     CALL 0x262E, 0
2D82  F013     NOP
53:                    E_PIN = 0;
2D84  908C     BCF LATD, 0, ACCESS
54:            #ifdef UPPER                                    // Upper nibble interface
55:                    TRIS_DATA_PORT |= 0xf0;                 // Make inputs
2D86  0EF0     MOVLW 0xF0
2D88  1295     IORWF TRISD, F, ACCESS
56:            #else                                           // Lower nibble interface
57:                    TRIS_DATA_PORT |= 0x0f;                 // Make inputs
58:            #endif
59:            #endif
60:                    return;
61:            }
2D8A  52E5     MOVF POSTDEC1, F, ACCESS
2D8C  CFE7     MOVFF INDF1, FSR2
2D8E  FFD9     NOP
2D90  0012     RETURN 0
62:            
---  C:/MPLabXProjects/Group_Project/ecng3006-project/Menu/readdata.c  ----------------------------------
1:             #include <p18cxxx.h>
2:             #include "xlcd.h"
3:             
4:             /********************************************************************
5:             *       Function Name:  ReadDataXLCD                                *
6:             *       Return Value:   char: data byte from LCD controller         *
7:             *       Parameters:     void                                        *
8:             *       Description:    This routine reads a data byte from the     *
9:             *                       Hitachi HD44780 LCD controller. The user    *
10:            *                       must check to see if the LCD controller is  *
11:            *                       busy before calling this routine. The data  *
12:            *                       is read from the character generator RAM or *
13:            *                       the display data RAM depending on what the  *
14:            *                       previous SetxxRamAddr routine was called.   *
15:            ********************************************************************/
16:            char ReadDataXLCD(void)
2F50  CFD9     MOVFF FSR2, POSTINC1
2F52  FFE6     NOP
2F54  CFE1     MOVFF FSR1, FSR2
2F56  FFD9     NOP
2F58  52E6     MOVF POSTINC1, F, ACCESS
17:            {
18:                    char data;
19:            
20:            #ifdef BIT8                             // 8-bit interface
21:                    RS_PIN = 1;                     // Set the control bits
22:                    RW_PIN = 1;
23:                    DelayFor18TCY();
24:                    E_PIN = 1;                      // Clock the data out of the LCD
25:                    DelayFor18TCY();
26:                    data = DATA_PORT;               // Read the data
27:                    E_PIN = 0;
28:                    RS_PIN = 0;                     // Reset the control bits
29:                    RW_PIN = 0;
30:            #else                                   // 4-bit interface
31:                    RW_PIN = 1;
2F5A  848C     BSF LATD, 2, ACCESS
32:                    RS_PIN = 1;
2F5C  828C     BSF LATD, 1, ACCESS
33:                    DelayFor18TCY();
2F5E  EC17     CALL 0x262E, 0
2F60  F013     NOP
34:                    E_PIN = 1;                      // Clock the data out of the LCD
2F62  808C     BSF LATD, 0, ACCESS
35:                    DelayFor18TCY();
2F64  EC17     CALL 0x262E, 0
2F66  F013     NOP
36:            #ifdef UPPER                            // Upper nibble interface
37:                    data = DATA_PORT&0xf0;          // Read the upper nibble of data
2F68  0EF0     MOVLW 0xF0
2F6A  1483     ANDWF PORTD, W, ACCESS
2F6C  6EDF     MOVWF INDF2, ACCESS
38:            #else                                   // Lower nibble interface
39:                    data = (DATA_PORT<<4)&0xf0;     // read the upper nibble of data
40:            #endif
41:                    E_PIN = 0;                      // Reset the clock line
2F6E  908C     BCF LATD, 0, ACCESS
42:                    DelayFor18TCY();
2F70  EC17     CALL 0x262E, 0
2F72  F013     NOP
43:                    E_PIN = 1;                      // Clock the next nibble out of the LCD
2F74  808C     BSF LATD, 0, ACCESS
44:                    DelayFor18TCY();
2F76  EC17     CALL 0x262E, 0
2F78  F013     NOP
45:            #ifdef UPPER                            // Upper nibble interface
46:                    data |= (DATA_PORT>>4)&0x0f;    // Read the lower nibble of data
2F7A  3883     SWAPF PORTD, W, ACCESS
2F7C  0B0F     ANDLW 0xF
2F7E  0B0F     ANDLW 0xF
2F80  12DF     IORWF INDF2, F, ACCESS
47:            #else                                   // Lower nibble interface
48:                    data |= DATA_PORT&0x0f;         // Read the lower nibble of data
49:            #endif
50:                    E_PIN = 0;                                      
2F82  908C     BCF LATD, 0, ACCESS
51:                    RS_PIN = 0;                     // Reset the control bits
2F84  928C     BCF LATD, 1, ACCESS
52:                    RW_PIN = 0;
2F86  948C     BCF LATD, 2, ACCESS
53:            #endif
54:                    return(data);                   // Return the data byte
2F88  50DF     MOVF INDF2, W, ACCESS
55:            }
2F8A  52E5     MOVF POSTDEC1, F, ACCESS
2F8C  52E5     MOVF POSTDEC1, F, ACCESS
2F8E  CFE7     MOVFF INDF1, FSR2
2F90  FFD9     NOP
2F92  0012     RETURN 0
56:            
---  C:/MPLabXProjects/Group_Project/ecng3006-project/Menu/readaddr.c  ----------------------------------
1:             #include <p18cxxx.h>
2:             #include "xlcd.h"
3:             
4:             /*********************************************************************
5:             *       Function Name:  ReadAddrXLCD                                 *
6:             *       Return Value:   char: address from LCD controller            *
7:             *       Parameters:     void                                         *
8:             *       Description:    This routine reads an address byte from the  *
9:             *                       Hitachi HD44780 LCD controller. The user     *
10:            *                       must check to see if the LCD controller is   *
11:            *                       busy before calling this routine. The address*
12:            *                       is read from the character generator RAM or  *
13:            *                       the display data RAM depending on what the   *
14:            *                       previous SetxxRamAddr routine was called.    *
15:            *********************************************************************/
16:            unsigned char ReadAddrXLCD(void)
2F94  CFD9     MOVFF FSR2, POSTINC1
2F96  FFE6     NOP
2F98  CFE1     MOVFF FSR1, FSR2
2F9A  FFD9     NOP
2F9C  52E6     MOVF POSTINC1, F, ACCESS
17:            {
18:                    char data;                      // Holds the data retrieved from the LCD
19:            
20:            #ifdef BIT8                             // 8-bit interface
21:                    RW_PIN = 1;                     // Set control bits for the read
22:                    RS_PIN = 0;
23:                    DelayFor18TCY();
24:                    E_PIN = 1;                      // Clock data out of the LCD controller
25:                    DelayFor18TCY();
26:                    data = DATA_PORT;               // Save the data in the register
27:                    E_PIN = 0;
28:                    RW_PIN = 0;                     // Reset the control bits
29:            #else                                   // 4-bit interface
30:                    RW_PIN = 1;                     // Set control bits for the read
2F9E  848C     BSF LATD, 2, ACCESS
31:                    RS_PIN = 0;
2FA0  928C     BCF LATD, 1, ACCESS
32:                    DelayFor18TCY();
2FA2  EC17     CALL 0x262E, 0
2FA4  F013     NOP
33:                    E_PIN = 1;                      // Clock data out of the LCD controller
2FA6  808C     BSF LATD, 0, ACCESS
34:                    DelayFor18TCY();
2FA8  EC17     CALL 0x262E, 0
2FAA  F013     NOP
35:            #ifdef UPPER                            // Upper nibble interface
36:                    data = DATA_PORT&0xf0;          // Read the nibble into the upper nibble of data
2FAC  0EF0     MOVLW 0xF0
2FAE  1483     ANDWF PORTD, W, ACCESS
2FB0  6EDF     MOVWF INDF2, ACCESS
37:            #else                                   // Lower nibble interface
38:                    data = (DATA_PORT<<4)&0xf0;     // Read the nibble into the upper nibble of data
39:            #endif
40:                    E_PIN = 0;                      // Reset the clock
2FB2  908C     BCF LATD, 0, ACCESS
41:                    DelayFor18TCY();
2FB4  EC17     CALL 0x262E, 0
2FB6  F013     NOP
42:                    E_PIN = 1;                      // Clock out the lower nibble
2FB8  808C     BSF LATD, 0, ACCESS
43:                    DelayFor18TCY();
2FBA  EC17     CALL 0x262E, 0
2FBC  F013     NOP
44:            #ifdef UPPER                            // Upper nibble interface
45:                    data |= (DATA_PORT>>4)&0x0f;    // Read the nibble into the lower nibble of data
2FBE  3883     SWAPF PORTD, W, ACCESS
2FC0  0B0F     ANDLW 0xF
2FC2  0B0F     ANDLW 0xF
2FC4  12DF     IORWF INDF2, F, ACCESS
46:            #else                                   // Lower nibble interface
47:                    data |= DATA_PORT&0x0f;         // Read the nibble into the lower nibble of data
48:            #endif
49:                    E_PIN = 0;
2FC6  908C     BCF LATD, 0, ACCESS
50:                    RW_PIN = 0;                     // Reset the control lines
2FC8  948C     BCF LATD, 2, ACCESS
51:            #endif
52:                    return (data&0x7f);             // Return the address, Mask off the busy bit
2FCA  0E7F     MOVLW 0x7F
2FCC  14DF     ANDWF INDF2, W, ACCESS
53:            }
2FCE  52E5     MOVF POSTDEC1, F, ACCESS
2FD0  52E5     MOVF POSTDEC1, F, ACCESS
2FD2  CFE7     MOVFF INDF1, FSR2
2FD4  FFD9     NOP
2FD6  0012     RETURN 0
54:            
---  C:/MPLabXProjects/Group_Project/ecng3006-project/Menu/putsxlcd.c  ----------------------------------
1:             #include <p18cxxx.h>
2:             #include "xlcd.h"
3:             
4:             /********************************************************************
5:             *       Function Name:  putsXLCD
6:             *       Return Value:   void
7:             *       Parameters:     buffer: pointer to string
8:             *       Description:    This routine writes a string of bytes to the
9:             *                       Hitachi HD44780 LCD controller. The user
10:            *                       must check to see if the LCD controller is
11:            *                       busy before calling this routine. The data
12:            *                       is written to the character generator RAM or
13:            *                       the display data RAM depending on what the
14:            *                       previous SetxxRamAddr routine was called.
15:            ********************************************************************/
16:            void putsXLCD(char *buffer)
2E78  CFD9     MOVFF FSR2, POSTINC1
2E7A  FFE6     NOP
2E7C  CFE1     MOVFF FSR1, FSR2
2E7E  FFD9     NOP
17:            {
18:                    while(*buffer)                  // Write data to LCD up to null
2E80  0EFD     MOVLW 0xFD
2E82  CFDB     MOVFF PLUSW2, FSR0
2E84  FFE9     NOP
2E86  0EFE     MOVLW 0xFE
2E88  CFDB     MOVFF PLUSW2, FSR0H
2E8A  FFEA     NOP
2E8C  50EF     MOVF INDF0, W, ACCESS
2E8E  E015     BZ 0x2EBA
2EB8  D7E3     BRA 0x2E80
19:                    {
20:                            while(BusyXLCD());      // Wait while LCD is busy
2E90  EC7C     CALL 0x30F8, 0
2E92  F018     NOP
2E94  0900     IORLW 0x0
2E96  E1FC     BNZ 0x2E90
21:                            WriteDataXLCD(*buffer); // Write character to LCD
2E98  0EFD     MOVLW 0xFD
2E9A  CFDB     MOVFF PLUSW2, FSR0
2E9C  FFE9     NOP
2E9E  0EFE     MOVLW 0xFE
2EA0  CFDB     MOVFF PLUSW2, FSR0H
2EA2  FFEA     NOP
2EA4  50EF     MOVF INDF0, W, ACCESS
2EA6  6EE6     MOVWF POSTINC1, ACCESS
2EA8  ECF0     CALL 0x2DE0, 0
2EAA  F016     NOP
2EAC  52E5     MOVF POSTDEC1, F, ACCESS
22:                            buffer++;               // Increment buffer
2EAE  0EFD     MOVLW 0xFD
2EB0  2ADB     INCF PLUSW2, F, ACCESS
2EB2  0EFE     MOVLW 0xFE
2EB4  E3E5     BNC 0x2E80
2EB6  2ADB     INCF PLUSW2, F, ACCESS
23:                    }
24:                    return;
25:            }
2EBA  52E5     MOVF POSTDEC1, F, ACCESS
2EBC  CFE7     MOVFF INDF1, FSR2
2EBE  FFD9     NOP
2EC0  0012     RETURN 0
26:            
---  C:/MPLabXProjects/Group_Project/ecng3006-project/Menu/putrxlcd.c  ----------------------------------
1:             #include <p18cxxx.h>
2:             #include "xlcd.h"
3:             
4:             /********************************************************************
5:             *       Function Name:  putrsXLCD
6:             *       Return Value:   void
7:             *       Parameters:     buffer: pointer to string
8:             *       Description:    This routine writes a string of bytes to the
9:             *                       Hitachi HD44780 LCD controller. The user
10:            *                       must check to see if the LCD controller is
11:            *                       busy before calling this routine. The data
12:            *                       is written to the character generator RAM or
13:            *                       the display data RAM depending on what the
14:            *                       previous SetxxRamAddr routine was called.
15:            ********************************************************************/
16:            void putrsXLCD(const rom char *buffer)
2D92  CFD9     MOVFF FSR2, POSTINC1
2D94  FFE6     NOP
2D96  CFE1     MOVFF FSR1, FSR2
2D98  FFD9     NOP
17:            {
18:                    while(*buffer)                  // Write data to LCD up to null
2D9A  0EFD     MOVLW 0xFD
2D9C  CFDB     MOVFF PLUSW2, TBLPTR
2D9E  FFF6     NOP
2DA0  0EFE     MOVLW 0xFE
2DA2  CFDB     MOVFF PLUSW2, TBLPTRH
2DA4  FFF7     NOP
2DA6  0008     TBLRD*
2DA8  50F5     MOVF TABLAT, W, ACCESS
2DAA  E016     BZ 0x2DD8
2DD6  D7E1     BRA 0x2D9A
19:                    {
20:                            while(BusyXLCD());      // Wait while LCD is busy
2DAC  EC7C     CALL 0x30F8, 0
2DAE  F018     NOP
2DB0  0900     IORLW 0x0
2DB2  E1FC     BNZ 0x2DAC
21:                            WriteDataXLCD(*buffer); // Write character to LCD
2DB4  0EFD     MOVLW 0xFD
2DB6  CFDB     MOVFF PLUSW2, TBLPTR
2DB8  FFF6     NOP
2DBA  0EFE     MOVLW 0xFE
2DBC  CFDB     MOVFF PLUSW2, TBLPTRH
2DBE  FFF7     NOP
2DC0  0008     TBLRD*
2DC2  50F5     MOVF TABLAT, W, ACCESS
2DC4  6EE6     MOVWF POSTINC1, ACCESS
2DC6  ECF0     CALL 0x2DE0, 0
2DC8  F016     NOP
2DCA  52E5     MOVF POSTDEC1, F, ACCESS
22:                            buffer++;               // Increment buffer
2DCC  0EFD     MOVLW 0xFD
2DCE  2ADB     INCF PLUSW2, F, ACCESS
2DD0  0EFE     MOVLW 0xFE
2DD2  E3E3     BNC 0x2D9A
2DD4  2ADB     INCF PLUSW2, F, ACCESS
23:                    }
24:                    return;
25:            }
2DD8  52E5     MOVF POSTDEC1, F, ACCESS
2DDA  CFE7     MOVFF INDF1, FSR2
2DDC  FFD9     NOP
2DDE  0012     RETURN 0
26:            
---  C:/MPLabXProjects/Group_Project/ecng3006-project/Menu/ow.h  ----------------------------------------
1:             /* Copyright  2011 Demetris Stavrou
2:             
3:              * version 1.0
4:             
5:              * ---------------------------------
6:             
7:              * OneWire Library for the C18 Compiler
8:             
9:              * Only the basic functions are included
10:            
11:             * ow_reset() for OneWire Reset
12:            
13:             * ow_write_byte(char) for writting byte
14:            
15:             * char ow_read_byte() for reading byte
16:            
17:             *
18:            
19:             * Just include the ow.h file in your project and define three required
20:            
21:             * names - OW_LAT, OW_PIN, OW_TRIS
22:            
23:             *
24:            
25:             * You can use this library for interfacing the Maxim thermometers like DS18S20
26:            
27:             * NOTE: This library works for 40MHz Frequency i.e. TCY = 0.1us
28:            
29:             * You can adjust the timings accordingly, at least for now!
30:            
31:             */
32:            
33:            #ifndef __OW_H
34:            #define __OW_H
35:            
36:            
37:            #define OW_LAT LATBbits.LATB5
38:            
39:            #define OW_PIN PORTBbits.RB5
40:            
41:            #define OW_TRIS TRISBbits.TRISB5
42:            
43:            
44:            #define OUTPUT 0
45:            
46:            #define INPUT 1
47:            
48:            unsigned char ow_reset(void)
1964  CFD9     MOVFF FSR2, POSTINC1
1966  FFE6     NOP
1968  CFE1     MOVFF FSR1, FSR2
196A  FFD9     NOP
196C  0E02     MOVLW 0x2
196E  26E1     ADDWF FSR1, F, ACCESS
49:            {
50:                short device_found=0;
1970  6ADE     CLRF POSTINC2, ACCESS
1972  6ADD     CLRF POSTDEC2, ACCESS
51:                // DQ High
52:                OW_TRIS=INPUT;
1974  8A93     BSF TRISB, 5, ACCESS
53:                // DQ Low
54:                OW_LAT=0;
1976  9A8A     BCF LATB, 5, ACCESS
55:                OW_TRIS=OUTPUT;
1978  9A93     BCF TRISB, 5, ACCESS
56:                // delay 480us
57:                Delay10TCYx(48);
197A  0E30     MOVLW 0x30
197C  6EE6     MOVWF POSTINC1, ACCESS
197E  EC2A     CALL 0x3254, 0
1980  F019     NOP
1982  52E5     MOVF POSTDEC1, F, ACCESS
58:                // DQ High
59:                OW_TRIS=INPUT;
1984  8A93     BSF TRISB, 5, ACCESS
60:                // Wait for the sensors to respond
61:                Delay10TCYx(10);
1986  0E0A     MOVLW 0xA
1988  6EE6     MOVWF POSTINC1, ACCESS
198A  EC2A     CALL 0x3254, 0
198C  F019     NOP
198E  52E5     MOVF POSTDEC1, F, ACCESS
62:                // Determine is a device has responded
63:                device_found = !OW_PIN;
1990  5081     MOVF PORTB, W, ACCESS
1992  0B20     ANDLW 0x20
1994  0A20     XORLW 0x20
1996  E001     BZ 0x199A
1998  0E01     MOVLW 0x1
199A  6E14     MOVWF __tmp_0, ACCESS
199C  6A15     CLRF digit_cnt, ACCESS
199E  BE14     BTFSC __tmp_0, 7, ACCESS
19A0  6815     SETF digit_cnt, ACCESS
19A2  C014     MOVFF __tmp_0, POSTINC2
19A4  FFDE     NOP
19A6  C015     MOVFF digit_cnt, POSTDEC2
19A8  FFDD     NOP
64:                //return device_found;
65:            }
19AA  6E14     MOVWF __tmp_0, ACCESS
19AC  0E02     MOVLW 0x2
19AE  5CE1     SUBWF FSR1, W, ACCESS
19B0  E202     BC 0x19B6
19B2  6AE1     CLRF FSR1, ACCESS
19B4  52E5     MOVF POSTDEC1, F, ACCESS
19B6  6EE1     MOVWF FSR1, ACCESS
19B8  5014     MOVF __tmp_0, W, ACCESS
19BA  52E5     MOVF POSTDEC1, F, ACCESS
19BC  CFE7     MOVFF INDF1, FSR2
19BE  FFD9     NOP
19C0  0012     RETURN 0
66:            
67:            void ow_write(unsigned char data)
19C2  CFD9     MOVFF FSR2, POSTINC1
19C4  FFE6     NOP
19C6  CFE1     MOVFF FSR1, FSR2
19C8  FFD9     NOP
19CA  52E6     MOVF POSTINC1, F, ACCESS
68:            {
69:                char i;
70:                for (i=0;i<8;i++)
19CC  6ADF     CLRF INDF2, ACCESS
19CE  CFDF     MOVFF INDF2, __tmp_0
19D0  F014     NOP
19D2  0E08     MOVLW 0x8
19D4  6EE7     MOVWF INDF1, ACCESS
19D6  1814     XORWF __tmp_0, W, ACCESS
19D8  AEE8     BTFSS WREG, 7, ACCESS
19DA  D002     BRA 0x19E0
19DC  34E7     RLCF INDF1, W, ACCESS
19DE  D002     BRA 0x19E4
19E0  50E7     MOVF INDF1, W, ACCESS
19E2  5C14     SUBWF __tmp_0, W, ACCESS
19E4  E222     BC 0x1A2A
1A26  2ADF     INCF INDF2, F, ACCESS
1A28  D7D2     BRA 0x19CE
71:                {
72:                    // DQ Low
73:                    OW_LAT=0;
19E6  9A8A     BCF LATB, 5, ACCESS
74:                    OW_TRIS=OUTPUT;
19E8  9A93     BCF TRISB, 5, ACCESS
75:                    // Keep it low for 10us to start the WRITE
76:                    Delay10TCYx(1);
19EA  0E01     MOVLW 0x1
19EC  6EE6     MOVWF POSTINC1, ACCESS
19EE  EC2A     CALL 0x3254, 0
19F0  F019     NOP
19F2  52E5     MOVF POSTDEC1, F, ACCESS
77:                    // Keep low i.e. keep output mode and low if WRITE0
78:                    // or release line i.e. make input to take it high if WRITE1
79:                    OW_TRIS = data & 0x01;
19F4  0EFE     MOVLW 0xFE
19F6  50DB     MOVF PLUSW2, W, ACCESS
19F8  0B01     ANDLW 0x1
19FA  B0E8     BTFSC WREG, 0, ACCESS
19FC  8A93     BSF TRISB, 5, ACCESS
19FE  A0E8     BTFSS WREG, 0, ACCESS
1A00  9A93     BCF TRISB, 5, ACCESS
80:                    Delay10TCYx(5);
1A02  0E05     MOVLW 0x5
1A04  6EE6     MOVWF POSTINC1, ACCESS
1A06  EC2A     CALL 0x3254, 0
1A08  F019     NOP
1A0A  52E5     MOVF POSTDEC1, F, ACCESS
81:                    // Release the line. Total of 60us
82:                    OW_TRIS=INPUT;
1A0C  8A93     BSF TRISB, 5, ACCESS
83:                    // Some recovery time between the bits 2us
84:                    Delay10TCYx(2);
1A0E  0E02     MOVLW 0x2
1A10  6EE6     MOVWF POSTINC1, ACCESS
1A12  EC2A     CALL 0x3254, 0
1A14  F019     NOP
1A16  52E5     MOVF POSTDEC1, F, ACCESS
85:                    data =data >>1;
1A18  0EFE     MOVLW 0xFE
1A1A  40DB     RRNCF PLUSW2, W, ACCESS
1A1C  0B7F     ANDLW 0x7F
1A1E  6EE7     MOVWF INDF1, ACCESS
1A20  0EFE     MOVLW 0xFE
1A22  CFE7     MOVFF INDF1, PLUSW2
1A24  FFDB     NOP
86:                }
87:            }
1A2A  52E5     MOVF POSTDEC1, F, ACCESS
1A2C  52E5     MOVF POSTDEC1, F, ACCESS
1A2E  CFE7     MOVFF INDF1, FSR2
1A30  FFD9     NOP
1A32  0012     RETURN 0
88:            char ow_read(void)
1A34  CFD9     MOVFF FSR2, POSTINC1
1A36  FFE6     NOP
1A38  CFE1     MOVFF FSR1, FSR2
1A3A  FFD9     NOP
1A3C  0E03     MOVLW 0x3
1A3E  26E1     ADDWF FSR1, F, ACCESS
89:            {
90:                int data=0;
1A40  6ADE     CLRF POSTINC2, ACCESS
1A42  6ADD     CLRF POSTDEC2, ACCESS
91:                char i;
92:                for (i=0;i<8;i++)
1A44  0E02     MOVLW 0x2
1A46  6ADB     CLRF PLUSW2, ACCESS
1A48  0E02     MOVLW 0x2
1A4A  CFDB     MOVFF PLUSW2, __tmp_0
1A4C  F014     NOP
1A4E  0E08     MOVLW 0x8
1A50  6EE7     MOVWF INDF1, ACCESS
1A52  1814     XORWF __tmp_0, W, ACCESS
1A54  AEE8     BTFSS WREG, 7, ACCESS
1A56  D002     BRA 0x1A5C
1A58  34E7     RLCF INDF1, W, ACCESS
1A5A  D002     BRA 0x1A60
1A5C  50E7     MOVF INDF1, W, ACCESS
1A5E  5C14     SUBWF __tmp_0, W, ACCESS
1A60  E22E     BC 0x1ABE
1AB8  0E02     MOVLW 0x2
1ABA  2ADB     INCF PLUSW2, F, ACCESS
1ABC  D7C5     BRA 0x1A48
93:                {
94:                    // DQ Low. Initiate READ
95:                    OW_LAT=0;
1A62  9A8A     BCF LATB, 5, ACCESS
96:                    OW_TRIS=OUTPUT;
1A64  9A93     BCF TRISB, 5, ACCESS
97:                     Nop();
1A66  0000     NOP
98:                     Nop();
1A68  0000     NOP
99:                    // DQ High. Release
100:                   OW_TRIS=INPUT;
1A6A  8A93     BSF TRISB, 5, ACCESS
101:                   // Wait for total of 10 us since READ initiation
102:                   Nop();
1A6C  0000     NOP
103:                   Nop();
1A6E  0000     NOP
104:                   Nop();
1A70  0000     NOP
105:                   Nop();
1A72  0000     NOP
106:                   Nop();
1A74  0000     NOP
107:                   Nop();
1A76  0000     NOP
108:                   Nop();
1A78  0000     NOP
109:                   Nop();
1A7A  0000     NOP
110:                   // Read the bit and place it in the data at the right position
111:                   data = (OW_PIN << i) | data;
1A7C  5081     MOVF PORTB, W, ACCESS
1A7E  0B20     ANDLW 0x20
1A80  E001     BZ 0x1A84
1A82  0E01     MOVLW 0x1
1A84  6EF3     MOVWF PROD, ACCESS
1A86  0E02     MOVLW 0x2
1A88  50DB     MOVF PLUSW2, W, ACCESS
1A8A  E004     BZ 0x1A94
1A8C  90D8     BCF STATUS, 0, ACCESS
1A8E  36F3     RLCF PROD, F, ACCESS
1A90  06E8     DECF WREG, F, ACCESS
1A92  E1FC     BNZ 0x1A8C
1A94  50F3     MOVF PROD, W, ACCESS
1A96  6E16     MOVWF prefix_cnt, ACCESS
1A98  6A17     CLRF sign_char, ACCESS
1A9A  50DE     MOVF POSTINC2, W, ACCESS
1A9C  1016     IORWF prefix_cnt, W, ACCESS
1A9E  6E14     MOVWF __tmp_0, ACCESS
1AA0  50DD     MOVF POSTDEC2, W, ACCESS
1AA2  1017     IORWF sign_char, W, ACCESS
1AA4  6E15     MOVWF digit_cnt, ACCESS
1AA6  C014     MOVFF __tmp_0, POSTINC2
1AA8  FFDE     NOP
1AAA  C015     MOVFF digit_cnt, POSTDEC2
1AAC  FFDD     NOP
112:                   // Additional time to complete the minimum 60 us READ cycle
113:                   Delay10TCYx(5);
1AAE  0E05     MOVLW 0x5
1AB0  6EE6     MOVWF POSTINC1, ACCESS
1AB2  EC2A     CALL 0x3254, 0
1AB4  F019     NOP
1AB6  52E5     MOVF POSTDEC1, F, ACCESS
114:               }
115:               return data;
1ABE  50DF     MOVF INDF2, W, ACCESS
1AC0  D000     BRA 0x1AC2
116:           }
1AC2  6E14     MOVWF __tmp_0, ACCESS
1AC4  0E03     MOVLW 0x3
1AC6  5CE1     SUBWF FSR1, W, ACCESS
1AC8  E202     BC 0x1ACE
1ACA  6AE1     CLRF FSR1, ACCESS
1ACC  52E5     MOVF POSTDEC1, F, ACCESS
1ACE  6EE1     MOVWF FSR1, ACCESS
1AD0  5014     MOVF __tmp_0, W, ACCESS
1AD2  52E5     MOVF POSTDEC1, F, ACCESS
1AD4  CFE7     MOVFF INDF1, FSR2
1AD6  FFD9     NOP
1AD8  0012     RETURN 0
117:           
118:           void temp(void);
119:           
120:           #endif
---  C:/MPLabXProjects/Group_Project/ecng3006-project/Menu/openxlcd.c  ----------------------------------
1:             #include <p18cxxx.h>
2:             #include <delays.h>
3:             #include "xlcd.h"
4:             
5:             /********************************************************************
6:             *       Function Name:  OpenXLCD                                    *
7:             *       Return Value:   void                                        *
8:             *       Parameters:     lcdtype: sets the type of LCD (lines)       *
9:             *       Description:    This routine configures the LCD. Based on   *
10:            *                       the Hitachi HD44780 LCD controller. The     *
11:            *                       routine will configure the I/O pins of the  *
12:            *                       microcontroller, setup the LCD for 4- or    *
13:            *                       8-bit mode and clear the display. The user  *
14:            *                       must provide three delay routines:          *
15:            *                       DelayFor18TCY() provides a 18 Tcy delay     *
16:            *                       DelayPORXLCD() provides at least 15ms delay *
17:            *                       DelayXLCD() provides at least 5ms delay     *
18:            ********************************************************************/
19:            void OpenXLCD(unsigned char lcdtype)
2740  CFD9     MOVFF FSR2, POSTINC1
2742  FFE6     NOP
2744  CFE1     MOVFF FSR1, FSR2
2746  FFD9     NOP
20:            {
21:                    // The data bits must be either a 8-bit port or the upper or
22:                    // lower 4-bits of a port. These pins are made into inputs
23:            #ifdef BIT8                             // 8-bit mode, use whole port
24:                    DATA_PORT = 0;
25:                    TRIS_DATA_PORT = 0x00;
26:            #else                                   // 4-bit mode
27:            #ifdef UPPER                            // Upper 4-bits of the port
28:                    DATA_PORT &= 0x0f;
2748  0E0F     MOVLW 0xF
274A  1683     ANDWF PORTD, F, ACCESS
29:                    TRIS_DATA_PORT &= 0x0F;
274C  1695     ANDWF TRISD, F, ACCESS
30:            #else                                   // Lower 4-bits of the port
31:                    DATA_PORT &= 0xf0;
32:                    TRIS_DATA_PORT &= 0xF0;
33:            #endif
34:            #endif
35:                    TRIS_RW = 0;                    // All control signals made outputs
274E  9495     BCF TRISD, 2, ACCESS
36:                    TRIS_RS = 0;
2750  9295     BCF TRISD, 1, ACCESS
37:                    TRIS_E = 0;
2752  9095     BCF TRISD, 0, ACCESS
38:                    RW_PIN = 0;                     // R/W pin made low
2754  948C     BCF LATD, 2, ACCESS
39:                    RS_PIN = 0;                     // Register select pin made low
2756  928C     BCF LATD, 1, ACCESS
40:                    E_PIN = 0;                      // Clock pin made low
2758  908C     BCF LATD, 0, ACCESS
41:            
42:                    // Delay for 15ms to allow for LCD Power on reset
43:                    DelayPORXLCD();
275A  EC2D     CALL 0x265A, 0
275C  F013     NOP
44:             //-------------------reset procedure through software----------------------       
45:            		 WriteCmdXLCD(0x30);
275E  0E30     MOVLW 0x30
2760  6EE6     MOVWF POSTINC1, ACCESS
2762  EC16     CALL 0x2E2C, 0
2764  F017     NOP
2766  52E5     MOVF POSTDEC1, F, ACCESS
46:            			Delay10KTCYx(0x05);
2768  0E05     MOVLW 0x5
276A  6EE6     MOVWF POSTINC1, ACCESS
276C  ECAF     CALL 0x315E, 0
276E  F018     NOP
2770  52E5     MOVF POSTDEC1, F, ACCESS
47:            
48:            		 WriteCmdXLCD(0x30);
2772  0E30     MOVLW 0x30
2774  6EE6     MOVWF POSTINC1, ACCESS
2776  EC16     CALL 0x2E2C, 0
2778  F017     NOP
277A  52E5     MOVF POSTDEC1, F, ACCESS
49:            			Delay10KTCYx(0x01);
277C  0E01     MOVLW 0x1
277E  6EE6     MOVWF POSTINC1, ACCESS
2780  ECAF     CALL 0x315E, 0
2782  F018     NOP
2784  52E5     MOVF POSTDEC1, F, ACCESS
50:            
51:            
52:            		 WriteCmdXLCD(0x32);
2786  0E32     MOVLW 0x32
2788  6EE6     MOVWF POSTINC1, ACCESS
278A  EC16     CALL 0x2E2C, 0
278C  F017     NOP
278E  52E5     MOVF POSTDEC1, F, ACCESS
53:            		while( BusyXLCD() );
2790  EC7C     CALL 0x30F8, 0
2792  F018     NOP
2794  0900     IORLW 0x0
2796  E1FC     BNZ 0x2790
54:            //------------------------------------------------------------------------------------------
55:            
56:            
57:                    // Set data interface width, # lines, font
58:                    while(BusyXLCD());              // Wait if LCD busy
2798  EC7C     CALL 0x30F8, 0
279A  F018     NOP
279C  0900     IORLW 0x0
279E  E1FC     BNZ 0x2798
59:                    WriteCmdXLCD(lcdtype);          // Function set cmd
27A0  0EFE     MOVLW 0xFE
27A2  CFDB     MOVFF PLUSW2, POSTINC1
27A4  FFE6     NOP
27A6  EC16     CALL 0x2E2C, 0
27A8  F017     NOP
27AA  52E5     MOVF POSTDEC1, F, ACCESS
60:            
61:                    // Turn the display on then off
62:                    while(BusyXLCD());              // Wait if LCD busy
27AC  EC7C     CALL 0x30F8, 0
27AE  F018     NOP
27B0  0900     IORLW 0x0
27B2  E1FC     BNZ 0x27AC
63:                    WriteCmdXLCD(DOFF&CURSOR_OFF&BLINK_OFF);        // Display OFF/Blink OFF
27B4  0E08     MOVLW 0x8
27B6  6EE6     MOVWF POSTINC1, ACCESS
27B8  EC16     CALL 0x2E2C, 0
27BA  F017     NOP
27BC  52E5     MOVF POSTDEC1, F, ACCESS
64:                    while(BusyXLCD());              // Wait if LCD busy
27BE  EC7C     CALL 0x30F8, 0
27C0  F018     NOP
27C2  0900     IORLW 0x0
27C4  E1FC     BNZ 0x27BE
65:                    WriteCmdXLCD(DON&CURSOR_ON&BLINK_ON);           // Display ON/Blink ON
27C6  0E0F     MOVLW 0xF
27C8  6EE6     MOVWF POSTINC1, ACCESS
27CA  EC16     CALL 0x2E2C, 0
27CC  F017     NOP
27CE  52E5     MOVF POSTDEC1, F, ACCESS
66:            
67:                    // Clear display
68:                    while(BusyXLCD());              // Wait if LCD busy
27D0  EC7C     CALL 0x30F8, 0
27D2  F018     NOP
27D4  0900     IORLW 0x0
27D6  E1FC     BNZ 0x27D0
69:                    WriteCmdXLCD(0x01);             // Clear display
27D8  0E01     MOVLW 0x1
27DA  6EE6     MOVWF POSTINC1, ACCESS
27DC  EC16     CALL 0x2E2C, 0
27DE  F017     NOP
27E0  52E5     MOVF POSTDEC1, F, ACCESS
70:            
71:                    // Set entry mode inc, no shift
72:                    while(BusyXLCD());              // Wait if LCD busy
27E2  EC7C     CALL 0x30F8, 0
27E4  F018     NOP
27E6  0900     IORLW 0x0
27E8  E1FC     BNZ 0x27E2
73:                    WriteCmdXLCD(SHIFT_CUR_LEFT);   // Entry Mode
27EA  0E04     MOVLW 0x4
27EC  6EE6     MOVWF POSTINC1, ACCESS
27EE  EC16     CALL 0x2E2C, 0
27F0  F017     NOP
27F2  52E5     MOVF POSTDEC1, F, ACCESS
74:            
75:                    // Set DD Ram address to 0
76:                    while(BusyXLCD());              // Wait if LCD busy
27F4  EC7C     CALL 0x30F8, 0
27F6  F018     NOP
27F8  0900     IORLW 0x0
27FA  E1FC     BNZ 0x27F4
77:                    SetDDRamAddr(0x80);                // Set Display data ram address to 0
27FC  0E80     MOVLW 0x80
27FE  6EE6     MOVWF POSTINC1, ACCESS
2800  EC7B     CALL 0x2CF6, 0
2802  F016     NOP
2804  52E5     MOVF POSTDEC1, F, ACCESS
78:            
79:                    return;
80:            }
2806  52E5     MOVF POSTDEC1, F, ACCESS
2808  CFE7     MOVFF INDF1, FSR2
280A  FFD9     NOP
280C  0012     RETURN 0
81:            
---  C:/MPLabXProjects/Group_Project/ecng3006-project/Menu/mainfile.c  ----------------------------------
1:             // Adapted keypad code from Amar Pustam 2018 
2:             #include <p18f452.h> 
3:             #include "delays.h"
4:             #include "xlcd.h"
5:             #include "Prototypes.h"
6:             #include <stdlib.h> 
7:             #include <stdio.h> 
8:             #include <math.h> 
9:             #include <string.h>
10:            #include <timers.h>
11:            
12:            #pragma config OSC = HS
13:            #pragma config WDT = OFF
14:            #pragma config LVP = OFF
15:            
16:            #define _XTAL_FREQ 4000000 //4Mhz clock
17:            
18:            //Function Prototypes
19:            void high_isr (void);
20:            void low_isr(void); 
21:            void keypress(void);
22:            void LcdSetup(void);
23:            void heartRateCal();
24:            void pulseCounting();
25:            void TemperatureSetup(void);
26:            void timer0Setup();
27:            void irPulseSetup();
28:            void MenuMain(void);
29:            void ReadTemperature();
30:            void HRV();
31:            void Glucose();
32:            void bpmAlarm(void);
33:            void hrvAlarm(void);
34:            void HRVprint();
35:            void HRVcal();
36:            void captureSetup();
37:            int press();
38:            
39:            
40:            int keyvalue = 13;
41:            char keyvaluechar[3];
42:            int startTimer = 1;
43:            
44:            
45:            
46:            
47:            
48:            /*------------------------HIGH INTERRUPT SERVICE ROUTINE----------------------*/
49:            #pragma code high_vector = 0x08
50:            void interrupt_at_high_vector(void)
51:            {
52:                _asm GOTO high_isr _endasm
0008  EFAC     GOTO 0x1D58
000A  F00E     NOP
53:            }
000C  0012     RETURN 0
54:            #pragma code
55:            
56:            #pragma interrupt high_isr
57:            void high_isr (void)
1D58  CFDA     MOVFF FSR2H, PREINC1
1D5A  FFE4     NOP
1D5C  CFE2     MOVFF FSR1H, FSR2H
1D5E  FFDA     NOP
1D60  CFE9     MOVFF FSR0, PREINC1
1D62  FFE4     NOP
1D64  CFEA     MOVFF FSR0H, PREINC1
1D66  FFE4     NOP
1D68  CFF6     MOVFF TBLPTR, PREINC1
1D6A  FFE4     NOP
1D6C  CFF7     MOVFF TBLPTRH, PREINC1
1D6E  FFE4     NOP
1D70  CFF5     MOVFF TABLAT, PREINC1
1D72  FFE4     NOP
1D74  CFF3     MOVFF PROD, PREINC1
1D76  FFE4     NOP
1D78  CFF4     MOVFF PRODH, PREINC1
1D7A  FFE4     NOP
1D7C  CFFA     MOVFF PCLATH, PREINC1
1D7E  FFE4     NOP
1D80  EE00     LFSR 0, 0x0
1D82  F000     NOP
1D84  0E14     MOVLW 0x14
1D86  04E8     DECF WREG, W, ACCESS
1D88  E303     BNC 0x1D90
1D8A  CFEE     MOVFF POSTINC0, PREINC1
1D8C  FFE4     NOP
1D8E  D7FB     BRA 0x1D86
1D90  EE00     LFSR 0, 0x14
1D92  F014     NOP
1D94  0E08     MOVLW 0x8
1D96  04E8     DECF WREG, W, ACCESS
1D98  E303     BNC 0x1DA0
1D9A  CFEE     MOVFF POSTINC0, PREINC1
1D9C  FFE4     NOP
1D9E  D7FB     BRA 0x1D96
1DA0  52E6     MOVF POSTINC1, F, ACCESS
58:            {    
59:                if(INTCONbits.TMR0IF == 1 && keyvalue == 10){
1DA2  50F2     MOVF INTCON, W, ACCESS
1DA4  0B04     ANDLW 0x4
1DA6  E009     BZ 0x1DBA
1DA8  0104     MOVLB 0x4
1DAA  0E0A     MOVLW 0xA
1DAC  1955     XORWF 0x55, W, BANKED
1DAE  E105     BNZ 0x1DBA
1DB0  5156     MOVF 0x56, W, BANKED
1DB2  E103     BNZ 0x1DBA
60:                    INTCONbits.TMR0IF = 0;
1DB4  94F2     BCF INTCON, 2, ACCESS
61:                    heartRateCal();
1DB6  EC07     CALL 0x280E, 0
1DB8  F014     NOP
62:                }
63:                if(PIR2bits.CCP2IF == 1 && keyvalue == 10 ){
1DBA  50A1     MOVF PIR2, W, ACCESS
1DBC  0B01     ANDLW 0x1
1DBE  E009     BZ 0x1DD2
1DC0  0104     MOVLB 0x4
1DC2  0E0A     MOVLW 0xA
1DC4  1955     XORWF 0x55, W, BANKED
1DC6  E105     BNZ 0x1DD2
1DC8  5156     MOVF 0x56, W, BANKED
1DCA  E103     BNZ 0x1DD2
64:                    PIR2bits.CCP2IF = 0;
1DCC  90A1     BCF PIR2, 0, ACCESS
65:                    HRVcal();
1DCE  EC52     CALL 0xCA4, 0
1DD0  F006     NOP
66:                }
67:            }
1DD2  52E5     MOVF POSTDEC1, F, ACCESS
1DD4  EE00     LFSR 0, 0x1B
1DD6  F01B     NOP
1DD8  0E08     MOVLW 0x8
1DDA  04E8     DECF WREG, W, ACCESS
1DDC  E303     BNC 0x1DE4
1DDE  CFE5     MOVFF POSTDEC1, POSTDEC0
1DE0  FFED     NOP
1DE2  D7FB     BRA 0x1DDA
1DE4  EE00     LFSR 0, 0x13
1DE6  F013     NOP
1DE8  0E14     MOVLW 0x14
1DEA  04E8     DECF WREG, W, ACCESS
1DEC  E303     BNC 0x1DF4
1DEE  CFE5     MOVFF POSTDEC1, POSTDEC0
1DF0  FFED     NOP
1DF2  D7FB     BRA 0x1DEA
1DF4  CFE5     MOVFF POSTDEC1, PCLATH
1DF6  FFFA     NOP
1DF8  CFE5     MOVFF POSTDEC1, PRODH
1DFA  FFF4     NOP
1DFC  CFE5     MOVFF POSTDEC1, PROD
1DFE  FFF3     NOP
1E00  CFE5     MOVFF POSTDEC1, TABLAT
1E02  FFF5     NOP
1E04  CFE5     MOVFF POSTDEC1, TBLPTRH
1E06  FFF7     NOP
1E08  CFE5     MOVFF POSTDEC1, TBLPTR
1E0A  FFF6     NOP
1E0C  CFE5     MOVFF POSTDEC1, FSR0H
1E0E  FFEA     NOP
1E10  CFE5     MOVFF POSTDEC1, FSR0
1E12  FFE9     NOP
1E14  CFE5     MOVFF POSTDEC1, FSR2H
1E16  FFDA     NOP
1E18  0011     RETFIE 1
68:            
69:            /*------------------------LOW INTERRUPT SERVICE ROUTINE----------------------*/
70:            #pragma code low_vector=0x18 
71:            void interrupt_at_low_vector(void) 
72:            {
73:                _asm 
74:                GOTO low_isr 
0018  EF0D     GOTO 0x1E1A
001A  F00F     NOP
75:                _endasm 
76:            } 
001C  0012     RETURN 0
77:            
78:            #pragma code 
79:            #pragma interruptlow low_isr
80:            
81:            void low_isr(void)
1E1A  CFD8     MOVFF STATUS, PREINC1
1E1C  FFE4     NOP
1E1E  CFE0     MOVFF BSR, PREINC1
1E20  FFE4     NOP
1E22  6EE4     MOVWF PREINC1, ACCESS
1E24  CFDA     MOVFF FSR2H, PREINC1
1E26  FFE4     NOP
1E28  CFE2     MOVFF FSR1H, FSR2H
1E2A  FFDA     NOP
1E2C  CFE9     MOVFF FSR0, PREINC1
1E2E  FFE4     NOP
1E30  CFEA     MOVFF FSR0H, PREINC1
1E32  FFE4     NOP
1E34  CFF6     MOVFF TBLPTR, PREINC1
1E36  FFE4     NOP
1E38  CFF7     MOVFF TBLPTRH, PREINC1
1E3A  FFE4     NOP
1E3C  CFF5     MOVFF TABLAT, PREINC1
1E3E  FFE4     NOP
1E40  CFF3     MOVFF PROD, PREINC1
1E42  FFE4     NOP
1E44  CFF4     MOVFF PRODH, PREINC1
1E46  FFE4     NOP
1E48  CFFA     MOVFF PCLATH, PREINC1
1E4A  FFE4     NOP
1E4C  EE00     LFSR 0, 0x0
1E4E  F000     NOP
1E50  0E14     MOVLW 0x14
1E52  04E8     DECF WREG, W, ACCESS
1E54  E303     BNC 0x1E5C
1E56  CFEE     MOVFF POSTINC0, PREINC1
1E58  FFE4     NOP
1E5A  D7FB     BRA 0x1E52
1E5C  EE00     LFSR 0, 0x14
1E5E  F014     NOP
1E60  0E08     MOVLW 0x8
1E62  04E8     DECF WREG, W, ACCESS
1E64  E303     BNC 0x1E6C
1E66  CFEE     MOVFF POSTINC0, PREINC1
1E68  FFE4     NOP
1E6A  D7FB     BRA 0x1E62
1E6C  52E6     MOVF POSTINC1, F, ACCESS
82:            {
83:                if(INTCON3bits.INT1IF){
1E6E  A0F0     BTFSS INTCON3, 0, ACCESS
1E70  D01A     BRA 0x1EA6
84:                INTCON3bits.INT1IF = 0;                 //clears the external interrupt flag
1E72  90F0     BCF INTCON3, 0, ACCESS
85:                WriteCmdXLCD(0b00000001);                         
1E74  0E01     MOVLW 0x1
1E76  6EE6     MOVWF POSTINC1, ACCESS
1E78  EC16     CALL 0x2E2C, 0
1E7A  F017     NOP
1E7C  52E5     MOVF POSTDEC1, F, ACCESS
86:                keyvalue = press();                     //Calls the key press function inside the ISR
1E7E  ECDC     CALL 0x1FB8, 0
1E80  F00F     NOP
1E82  CFF3     MOVFF PROD, keyvalue
1E84  F455     NOP
1E86  CFF4     MOVFF PRODH, 0x456
1E88  F456     NOP
87:                itoa(keyvalue, keyvaluechar);
1E8A  0E5D     MOVLW 0x5D
1E8C  6EE6     MOVWF POSTINC1, ACCESS
1E8E  0E04     MOVLW 0x4
1E90  6EE6     MOVWF POSTINC1, ACCESS
1E92  CFF3     MOVFF PROD, POSTINC1
1E94  FFE6     NOP
1E96  CFF4     MOVFF PRODH, POSTINC1
1E98  FFE6     NOP
1E9A  EC7D     CALL 0x24FA, 0
1E9C  F012     NOP
1E9E  52E5     MOVF POSTDEC1, F, ACCESS
1EA0  52E5     MOVF POSTDEC1, F, ACCESS
1EA2  52E5     MOVF POSTDEC1, F, ACCESS
1EA4  52E5     MOVF POSTDEC1, F, ACCESS
88:                }
89:               
90:                
91:                if(INTCON3bits.INT2IF){
1EA6  A2F0     BTFSS INTCON3, 1, ACCESS
1EA8  D003     BRA 0x1EB0
92:                    INTCON3bits.INT2IF = 0;
1EAA  92F0     BCF INTCON3, 1, ACCESS
93:                    pulseCounting();
1EAC  EC5A     CALL 0x28B4, 0
1EAE  F014     NOP
94:                }
95:                
96:                if (PIR1bits.TMR1IF = 1 && keyvalue == 10)
1EB0  0104     MOVLB 0x4
1EB2  0E0A     MOVLW 0xA
1EB4  1955     XORWF 0x55, W, BANKED
1EB6  E101     BNZ 0x1EBA
1EB8  5156     MOVF 0x56, W, BANKED
1EBA  E002     BZ 0x1EC0
1EBC  0E00     MOVLW 0x0
1EBE  D001     BRA 0x1EC2
1EC0  0E01     MOVLW 0x1
1EC2  B0E8     BTFSC WREG, 0, ACCESS
1EC4  809E     BSF PIR1, 0, ACCESS
1EC6  A0E8     BTFSS WREG, 0, ACCESS
1EC8  909E     BCF PIR1, 0, ACCESS
1ECA  A09E     BTFSS PIR1, 0, ACCESS
1ECC  D003     BRA 0x1ED4
97:                {
98:                    PIR1bits.TMR1IF = 0; 
1ECE  909E     BCF PIR1, 0, ACCESS
99:                    HRVprint();
1ED0  EC23     CALL 0x1246, 0
1ED2  F009     NOP
100:               }
101:           }
1ED4  52E5     MOVF POSTDEC1, F, ACCESS
1ED6  EE00     LFSR 0, 0x1B
1ED8  F01B     NOP
1EDA  0E08     MOVLW 0x8
1EDC  04E8     DECF WREG, W, ACCESS
1EDE  E303     BNC 0x1EE6
1EE0  CFE5     MOVFF POSTDEC1, POSTDEC0
1EE2  FFED     NOP
1EE4  D7FB     BRA 0x1EDC
1EE6  EE00     LFSR 0, 0x13
1EE8  F013     NOP
1EEA  0E14     MOVLW 0x14
1EEC  04E8     DECF WREG, W, ACCESS
1EEE  E303     BNC 0x1EF6
1EF0  CFE5     MOVFF POSTDEC1, POSTDEC0
1EF2  FFED     NOP
1EF4  D7FB     BRA 0x1EEC
1EF6  CFE5     MOVFF POSTDEC1, PCLATH
1EF8  FFFA     NOP
1EFA  CFE5     MOVFF POSTDEC1, PRODH
1EFC  FFF4     NOP
1EFE  CFE5     MOVFF POSTDEC1, PROD
1F00  FFF3     NOP
1F02  CFE5     MOVFF POSTDEC1, TABLAT
1F04  FFF5     NOP
1F06  CFE5     MOVFF POSTDEC1, TBLPTRH
1F08  FFF7     NOP
1F0A  CFE5     MOVFF POSTDEC1, TBLPTR
1F0C  FFF6     NOP
1F0E  CFE5     MOVFF POSTDEC1, FSR0H
1F10  FFEA     NOP
1F12  CFE5     MOVFF POSTDEC1, FSR0
1F14  FFE9     NOP
1F16  CFE5     MOVFF POSTDEC1, FSR2H
1F18  FFDA     NOP
1F1A  50E5     MOVF POSTDEC1, W, ACCESS
1F1C  CFE5     MOVFF POSTDEC1, BSR
1F1E  FFE0     NOP
1F20  CFE5     MOVFF POSTDEC1, STATUS
1F22  FFD8     NOP
1F24  0010     RETFIE 0
102:           
103:           
104:           void InterruptSetup(void){
105:           
106:               INTCON3bits.INT1IE = 1;                 //enable the INT1 external interrupt 
1F26  86F0     BSF INTCON3, 3, ACCESS
107:               INTCON3bits.INT1IF = 0;                 //clear external interrupt INT1 flag
1F28  90F0     BCF INTCON3, 0, ACCESS
108:               INTCON2bits.INTEDG1= 1;                //set interrupt INT1 on rising edge
1F2A  8AF1     BSF INTCON2, 5, ACCESS
109:               RCONbits.IPEN = 1;                              // Enable Interrupt Priority 
1F2C  8ED0     BSF RCON, 7, ACCESS
110:               INTCONbits.PEIE =1;                         //Enable Peripheral Interrupt Enable bit
1F2E  8CF2     BSF INTCON, 6, ACCESS
111:               INTCONbits.GIEH = 1;                        //Enable all high priority interrupts/ global interrupt bit
1F30  8EF2     BSF INTCON, 7, ACCESS
112:               INTCON3bits.INT1IP = 0;                 //Set INT1 Priority bit to high priority
1F32  9CF0     BCF INTCON3, 6, ACCESS
113:           }
1F34  0012     RETURN 0
114:           
115:           void main(void){
116:               //Call setups for all modules
117:               InterruptSetup();
1F36  DFF7     RCALL InterruptSetup
118:               KeypadSetup();
1F38  ECD7     CALL 0x1FAE, 0
1F3A  F00F     NOP
119:               LcdSetup();
1F3C  EC33     CALL 0x2666, 0
1F3E  F013     NOP
120:               TemperatureSetup(); 
1F40  EC6D     CALL 0x1ADA, 0
1F42  F00D     NOP
121:               timer0Setup();
1F44  EC51     CALL 0x28A2, 0
1F46  F014     NOP
122:               irPulseSetup();
1F48  EC4B     CALL 0x2896, 0
1F4A  F014     NOP
123:               timer1Setup();
1F4C  EC39     CALL 0xC72, 0
1F4E  F006     NOP
124:               //captureSetup();
125:               
126:               while(keyvalue == 13){
1F50  0104     MOVLB 0x4
1F52  0E0D     MOVLW 0xD
1F54  1955     XORWF 0x55, W, BANKED
1F56  E105     BNZ 0x1F62
1F58  5156     MOVF 0x56, W, BANKED
1F5A  E103     BNZ 0x1F62
1F60  D7F7     BRA 0x1F50
127:                   MenuMain();
1F5C  EC5C     CALL 0x26B8, 0
1F5E  F013     NOP
128:                   /*if(startTimer ==0){
129:                       startTimer = 1;
130:                       CloseTimer0();
131:                   }*/
132:                   //CloseTimer0();
133:               }
134:               while(keyvalue == 10){                  //Start live readings
1F62  0104     MOVLB 0x4
1F64  0E0A     MOVLW 0xA
1F66  1955     XORWF 0x55, W, BANKED
1F68  E121     BNZ 0x1FAC
1F6A  5156     MOVF 0x56, W, BANKED
1F6C  E11F     BNZ 0x1FAC
1FAA  D7DB     BRA 0x1F62
135:                   HeartRt();
1F6E  ECB4     CALL 0x2368, 0
1F70  F011     NOP
136:                   Delay10KTCYx(10);
1F72  0E0A     MOVLW 0xA
1F74  6EE6     MOVWF POSTINC1, ACCESS
1F76  ECAF     CALL 0x315E, 0
1F78  F018     NOP
1F7A  52E5     MOVF POSTDEC1, F, ACCESS
137:                   HRV();
1F7C  ECF5     CALL 0x23EA, 0
1F7E  F011     NOP
138:                   //captureSetup();
139:                   ReadTemperature();
1F80  EC13     CALL 0x1C26, 0
1F82  F00E     NOP
140:                   //TimerStart();
141:                   if(startTimer == 1){
1F84  0104     MOVLB 0x4
1F86  0E01     MOVLW 0x1
1F88  1957     XORWF 0x57, W, BANKED
1F8A  E10D     BNZ 0x1FA6
1F8C  5158     MOVF 0x58, W, BANKED
1F8E  E10B     BNZ 0x1FA6
142:                   WriteTimer0(0xF0BD);
1F90  0EBD     MOVLW 0xBD
1F92  6EE6     MOVWF POSTINC1, ACCESS
1F94  0EF0     MOVLW 0xF0
1F96  6EE6     MOVWF POSTINC1, ACCESS
1F98  EC29     CALL 0x3052, 0
1F9A  F018     NOP
1F9C  52E5     MOVF POSTDEC1, F, ACCESS
1F9E  52E5     MOVF POSTDEC1, F, ACCESS
143:                   startTimer = 0;
1FA0  0104     MOVLB 0x4
1FA2  6B57     CLRF 0x57, BANKED
1FA4  6B58     CLRF 0x58, BANKED
144:                   }
145:                   //HRV();
146:                   Glucose();
1FA6  EC49     CALL 0x2492, 0
1FA8  F012     NOP
147:                   //startTimer = 0;
148:               }
149:           }
1FAC  0012     RETURN 0
---  C:/MPLabXProjects/Group_Project/ecng3006-project/Menu/keypad.c  ------------------------------------
1:             #include <p18f452.h> 
2:             
3:             int value;
4:             
5:             //Function Prototypes
6:             void KeypadSetup(void);
7:             int press();
8:             
9:             void KeypadSetup(void)                          //Setup for keypad
10:            {
11:                TRISCbits.RC7 = 1; //A                      //Defining ports for each input
1FAE  8E94     BSF TRISC, 7, ACCESS
12:                TRISCbits.RC6 = 1; //B
1FB0  8C94     BSF TRISC, 6, ACCESS
13:                TRISCbits.RC5 = 1; //C
1FB2  8A94     BSF TRISC, 5, ACCESS
14:                TRISCbits.RC4 = 1; //D
1FB4  8894     BSF TRISC, 4, ACCESS
15:            }
1FB6  0012     RETURN 0
16:            
17:            int press()
18:            {
19:            if (!PORTCbits.RC7 && !PORTCbits.RC6 && !PORTCbits.RC5 && !PORTCbits.RC4 )
1FB8  5082     MOVF PORTC, W, ACCESS
1FBA  0B80     ANDLW 0x80
1FBC  E10D     BNZ 0x1FD8
1FBE  5082     MOVF PORTC, W, ACCESS
1FC0  0B40     ANDLW 0x40
1FC2  E10A     BNZ 0x1FD8
1FC4  5082     MOVF PORTC, W, ACCESS
1FC6  0B20     ANDLW 0x20
1FC8  E107     BNZ 0x1FD8
1FCA  5082     MOVF PORTC, W, ACCESS
1FCC  0B10     ANDLW 0x10
1FCE  E104     BNZ 0x1FD8
20:                {
21:                  value = 1;
1FD0  0E01     MOVLW 0x1
1FD2  0104     MOVLB 0x4
1FD4  6F60     MOVWF 0x60, BANKED
1FD6  6B61     CLRF 0x61, BANKED
22:                }
23:             if (PORTCbits.RC7 && PORTCbits.RC6 && !PORTCbits.RC5 && !PORTCbits.RC4 )
1FD8  5082     MOVF PORTC, W, ACCESS
1FDA  0B80     ANDLW 0x80
1FDC  E00D     BZ 0x1FF8
1FDE  5082     MOVF PORTC, W, ACCESS
1FE0  0B40     ANDLW 0x40
1FE2  E00A     BZ 0x1FF8
1FE4  5082     MOVF PORTC, W, ACCESS
1FE6  0B20     ANDLW 0x20
1FE8  E107     BNZ 0x1FF8
1FEA  5082     MOVF PORTC, W, ACCESS
1FEC  0B10     ANDLW 0x10
1FEE  E104     BNZ 0x1FF8
24:                {
25:                  value = 2;
1FF0  0E02     MOVLW 0x2
1FF2  0104     MOVLB 0x4
1FF4  6F60     MOVWF 0x60, BANKED
1FF6  6B61     CLRF 0x61, BANKED
26:                } 
27:             if (!PORTCbits.RC7 && PORTCbits.RC6 && !PORTCbits.RC5 && !PORTCbits.RC4)
1FF8  5082     MOVF PORTC, W, ACCESS
1FFA  0B80     ANDLW 0x80
1FFC  E10D     BNZ 0x2018
1FFE  5082     MOVF PORTC, W, ACCESS
2000  0B40     ANDLW 0x40
2002  E00A     BZ 0x2018
2004  5082     MOVF PORTC, W, ACCESS
2006  0B20     ANDLW 0x20
2008  E107     BNZ 0x2018
200A  5082     MOVF PORTC, W, ACCESS
200C  0B10     ANDLW 0x10
200E  E104     BNZ 0x2018
28:                {
29:                  value = 3;
2010  0E03     MOVLW 0x3
2012  0104     MOVLB 0x4
2014  6F60     MOVWF 0x60, BANKED
2016  6B61     CLRF 0x61, BANKED
30:                } 
31:              if (!PORTCbits.RC7 && !PORTCbits.RC6 && PORTCbits.RC5 && !PORTCbits.RC4)
2018  5082     MOVF PORTC, W, ACCESS
201A  0B80     ANDLW 0x80
201C  E10D     BNZ 0x2038
201E  5082     MOVF PORTC, W, ACCESS
2020  0B40     ANDLW 0x40
2022  E10A     BNZ 0x2038
2024  5082     MOVF PORTC, W, ACCESS
2026  0B20     ANDLW 0x20
2028  E007     BZ 0x2038
202A  5082     MOVF PORTC, W, ACCESS
202C  0B10     ANDLW 0x10
202E  E104     BNZ 0x2038
32:                {
33:                  value = 4;
2030  0E04     MOVLW 0x4
2032  0104     MOVLB 0x4
2034  6F60     MOVWF 0x60, BANKED
2036  6B61     CLRF 0x61, BANKED
34:                }
35:              if (PORTCbits.RC7 && PORTCbits.RC6 && PORTCbits.RC5 && !PORTCbits.RC4 )
2038  5082     MOVF PORTC, W, ACCESS
203A  0B80     ANDLW 0x80
203C  E00D     BZ 0x2058
203E  5082     MOVF PORTC, W, ACCESS
2040  0B40     ANDLW 0x40
2042  E00A     BZ 0x2058
2044  5082     MOVF PORTC, W, ACCESS
2046  0B20     ANDLW 0x20
2048  E007     BZ 0x2058
204A  5082     MOVF PORTC, W, ACCESS
204C  0B10     ANDLW 0x10
204E  E104     BNZ 0x2058
36:                {
37:                  value = 5;
2050  0E05     MOVLW 0x5
2052  0104     MOVLB 0x4
2054  6F60     MOVWF 0x60, BANKED
2056  6B61     CLRF 0x61, BANKED
38:                }
39:              if (!PORTCbits.RC7 && PORTCbits.RC6 && PORTCbits.RC5 && !PORTCbits.RC4 )
2058  5082     MOVF PORTC, W, ACCESS
205A  0B80     ANDLW 0x80
205C  E10D     BNZ 0x2078
205E  5082     MOVF PORTC, W, ACCESS
2060  0B40     ANDLW 0x40
2062  E00A     BZ 0x2078
2064  5082     MOVF PORTC, W, ACCESS
2066  0B20     ANDLW 0x20
2068  E007     BZ 0x2078
206A  5082     MOVF PORTC, W, ACCESS
206C  0B10     ANDLW 0x10
206E  E104     BNZ 0x2078
40:                {
41:                  value = 6;
2070  0E06     MOVLW 0x6
2072  0104     MOVLB 0x4
2074  6F60     MOVWF 0x60, BANKED
2076  6B61     CLRF 0x61, BANKED
42:                }
43:              if (!PORTCbits.RC7 && !PORTCbits.RC6 && !PORTCbits.RC5 && PORTCbits.RC4 )
2078  5082     MOVF PORTC, W, ACCESS
207A  0B80     ANDLW 0x80
207C  E10D     BNZ 0x2098
207E  5082     MOVF PORTC, W, ACCESS
2080  0B40     ANDLW 0x40
2082  E10A     BNZ 0x2098
2084  5082     MOVF PORTC, W, ACCESS
2086  0B20     ANDLW 0x20
2088  E107     BNZ 0x2098
208A  5082     MOVF PORTC, W, ACCESS
208C  0B10     ANDLW 0x10
208E  E004     BZ 0x2098
44:                {
45:                  value = 7;
2090  0E07     MOVLW 0x7
2092  0104     MOVLB 0x4
2094  6F60     MOVWF 0x60, BANKED
2096  6B61     CLRF 0x61, BANKED
46:                }
47:              if (PORTCbits.RC7 && PORTCbits.RC6 && !PORTCbits.RC5 && PORTCbits.RC4 )
2098  5082     MOVF PORTC, W, ACCESS
209A  0B80     ANDLW 0x80
209C  E00D     BZ 0x20B8
209E  5082     MOVF PORTC, W, ACCESS
20A0  0B40     ANDLW 0x40
20A2  E00A     BZ 0x20B8
20A4  5082     MOVF PORTC, W, ACCESS
20A6  0B20     ANDLW 0x20
20A8  E107     BNZ 0x20B8
20AA  5082     MOVF PORTC, W, ACCESS
20AC  0B10     ANDLW 0x10
20AE  E004     BZ 0x20B8
48:                {
49:                  value = 8;
20B0  0E08     MOVLW 0x8
20B2  0104     MOVLB 0x4
20B4  6F60     MOVWF 0x60, BANKED
20B6  6B61     CLRF 0x61, BANKED
50:                }
51:              if (!PORTCbits.RC7 && PORTCbits.RC6 && !PORTCbits.RC5 && PORTCbits.RC4 )
20B8  5082     MOVF PORTC, W, ACCESS
20BA  0B80     ANDLW 0x80
20BC  E10D     BNZ 0x20D8
20BE  5082     MOVF PORTC, W, ACCESS
20C0  0B40     ANDLW 0x40
20C2  E00A     BZ 0x20D8
20C4  5082     MOVF PORTC, W, ACCESS
20C6  0B20     ANDLW 0x20
20C8  E107     BNZ 0x20D8
20CA  5082     MOVF PORTC, W, ACCESS
20CC  0B10     ANDLW 0x10
20CE  E004     BZ 0x20D8
52:                {
53:                  value = 9;
20D0  0E09     MOVLW 0x9
20D2  0104     MOVLB 0x4
20D4  6F60     MOVWF 0x60, BANKED
20D6  6B61     CLRF 0x61, BANKED
54:                }
55:              if (!PORTCbits.RC7 && !PORTCbits.RC6 && PORTCbits.RC5 && PORTCbits.RC4 )
20D8  5082     MOVF PORTC, W, ACCESS
20DA  0B80     ANDLW 0x80
20DC  E10C     BNZ 0x20F6
20DE  5082     MOVF PORTC, W, ACCESS
20E0  0B40     ANDLW 0x40
20E2  E109     BNZ 0x20F6
20E4  5082     MOVF PORTC, W, ACCESS
20E6  0B20     ANDLW 0x20
20E8  E006     BZ 0x20F6
20EA  5082     MOVF PORTC, W, ACCESS
20EC  0B10     ANDLW 0x10
20EE  E003     BZ 0x20F6
56:                {
57:                  value = 0;
20F0  0104     MOVLB 0x4
20F2  6B60     CLRF 0x60, BANKED
20F4  6B61     CLRF 0x61, BANKED
58:                }
59:            if (PORTCbits.RC7 && !PORTCbits.RC6 && !PORTCbits.RC5 && !PORTCbits.RC4 )
20F6  5082     MOVF PORTC, W, ACCESS
20F8  0B80     ANDLW 0x80
20FA  E00D     BZ 0x2116
20FC  5082     MOVF PORTC, W, ACCESS
20FE  0B40     ANDLW 0x40
2100  E10A     BNZ 0x2116
2102  5082     MOVF PORTC, W, ACCESS
2104  0B20     ANDLW 0x20
2106  E107     BNZ 0x2116
2108  5082     MOVF PORTC, W, ACCESS
210A  0B10     ANDLW 0x10
210C  E104     BNZ 0x2116
60:                {
61:                  value = 10;
210E  0E0A     MOVLW 0xA
2110  0104     MOVLB 0x4
2112  6F60     MOVWF 0x60, BANKED
2114  6B61     CLRF 0x61, BANKED
62:                }
63:              if (PORTCbits.RC7 && !PORTCbits.RC6 && PORTCbits.RC5 && !PORTCbits.RC4 )
2116  5082     MOVF PORTC, W, ACCESS
2118  0B80     ANDLW 0x80
211A  E00D     BZ 0x2136
211C  5082     MOVF PORTC, W, ACCESS
211E  0B40     ANDLW 0x40
2120  E10A     BNZ 0x2136
2122  5082     MOVF PORTC, W, ACCESS
2124  0B20     ANDLW 0x20
2126  E007     BZ 0x2136
2128  5082     MOVF PORTC, W, ACCESS
212A  0B10     ANDLW 0x10
212C  E104     BNZ 0x2136
64:                {
65:                  value = 11;
212E  0E0B     MOVLW 0xB
2130  0104     MOVLB 0x4
2132  6F60     MOVWF 0x60, BANKED
2134  6B61     CLRF 0x61, BANKED
66:                }
67:              if (PORTCbits.RC7 && !PORTCbits.RC6 && !PORTCbits.RC5 && PORTCbits.RC4 )
2136  5082     MOVF PORTC, W, ACCESS
2138  0B80     ANDLW 0x80
213A  E00D     BZ 0x2156
213C  5082     MOVF PORTC, W, ACCESS
213E  0B40     ANDLW 0x40
2140  E10A     BNZ 0x2156
2142  5082     MOVF PORTC, W, ACCESS
2144  0B20     ANDLW 0x20
2146  E107     BNZ 0x2156
2148  5082     MOVF PORTC, W, ACCESS
214A  0B10     ANDLW 0x10
214C  E004     BZ 0x2156
68:                {
69:                  value = 12;
214E  0E0C     MOVLW 0xC
2150  0104     MOVLB 0x4
2152  6F60     MOVWF 0x60, BANKED
2154  6B61     CLRF 0x61, BANKED
70:                }
71:              if (PORTCbits.RC7 && !PORTCbits.RC6 && PORTCbits.RC5 && PORTCbits.RC4 )
2156  5082     MOVF PORTC, W, ACCESS
2158  0B80     ANDLW 0x80
215A  E00D     BZ 0x2176
215C  5082     MOVF PORTC, W, ACCESS
215E  0B40     ANDLW 0x40
2160  E10A     BNZ 0x2176
2162  5082     MOVF PORTC, W, ACCESS
2164  0B20     ANDLW 0x20
2166  E007     BZ 0x2176
2168  5082     MOVF PORTC, W, ACCESS
216A  0B10     ANDLW 0x10
216C  E004     BZ 0x2176
72:                {
73:                  value = 13;
216E  0E0D     MOVLW 0xD
2170  0104     MOVLB 0x4
2172  6F60     MOVWF 0x60, BANKED
2174  6B61     CLRF 0x61, BANKED
74:                }
75:              if (!PORTCbits.RC7 && PORTCbits.RC6 && PORTCbits.RC5 && PORTCbits.RC4 )
2176  5082     MOVF PORTC, W, ACCESS
2178  0B80     ANDLW 0x80
217A  E10D     BNZ 0x2196
217C  5082     MOVF PORTC, W, ACCESS
217E  0B40     ANDLW 0x40
2180  E00A     BZ 0x2196
2182  5082     MOVF PORTC, W, ACCESS
2184  0B20     ANDLW 0x20
2186  E007     BZ 0x2196
2188  5082     MOVF PORTC, W, ACCESS
218A  0B10     ANDLW 0x10
218C  E004     BZ 0x2196
76:                {
77:                  value = 14;
218E  0E0E     MOVLW 0xE
2190  0104     MOVLB 0x4
2192  6F60     MOVWF 0x60, BANKED
2194  6B61     CLRF 0x61, BANKED
78:                }
79:              if (PORTCbits.RC7 && PORTCbits.RC6 && PORTCbits.RC5 && PORTCbits.RC4 )
2196  5082     MOVF PORTC, W, ACCESS
2198  0B80     ANDLW 0x80
219A  E00D     BZ 0x21B6
219C  5082     MOVF PORTC, W, ACCESS
219E  0B40     ANDLW 0x40
21A0  E00A     BZ 0x21B6
21A2  5082     MOVF PORTC, W, ACCESS
21A4  0B20     ANDLW 0x20
21A6  E007     BZ 0x21B6
21A8  5082     MOVF PORTC, W, ACCESS
21AA  0B10     ANDLW 0x10
21AC  E004     BZ 0x21B6
80:                {
81:                  value = 15;
21AE  0E0F     MOVLW 0xF
21B0  0104     MOVLB 0x4
21B2  6F60     MOVWF 0x60, BANKED
21B4  6B61     CLRF 0x61, BANKED
82:                }
83:            return value;
21B6  C460     MOVFF value, PROD
21B8  FFF3     NOP
21BA  C461     MOVFF 0x461, PRODH
21BC  FFF4     NOP
84:            }
21BE  0012     RETURN 0
---  C:/MPLabXProjects/Group_Project/ecng3006-project/Menu/busyxlcd.c  ----------------------------------
1:             #include <p18cxxx.h>
2:             #include "xlcd.h"
3:             
4:             /********************************************************************
5:             *       Function Name:  BusyXLCD                                    *
6:             *       Return Value:   char: busy status of LCD controller         *
7:             *       Parameters:     void                                        *
8:             *       Description:    This routine reads the busy status of the   *
9:             *                       Hitachi HD44780 LCD controller.             *
10:            ********************************************************************/
11:            unsigned char BusyXLCD(void)
12:            {
13:                    RW_PIN = 1;                     // Set the control bits for read
30F8  848C     BSF LATD, 2, ACCESS
14:                    RS_PIN = 0;
30FA  928C     BCF LATD, 1, ACCESS
15:                    DelayFor18TCY();
30FC  EC17     CALL 0x262E, 0
30FE  F013     NOP
16:                    E_PIN = 1;                      // Clock in the command
3100  808C     BSF LATD, 0, ACCESS
17:                    DelayFor18TCY();
3102  EC17     CALL 0x262E, 0
3104  F013     NOP
18:            #ifdef BIT8                             // 8-bit interface
19:                    if(DATA_PORT&0x80)                      // Read bit 7 (busy bit)
20:                    {                               // If high
21:                            E_PIN = 0;              // Reset clock line
22:                            RW_PIN = 0;             // Reset control line
23:                            return 1;               // Return TRUE
24:                    }
25:                    else                            // Bit 7 low
26:                    {
27:                            E_PIN = 0;              // Reset clock line
28:                            RW_PIN = 0;             // Reset control line
29:                            return 0;               // Return FALSE
30:                    }
31:            #else                                   // 4-bit interface
32:            #ifdef UPPER                            // Upper nibble interface
33:                    if(DATA_PORT&0x80)
3106  AE83     BTFSS PORTD, 7, ACCESS
3108  D009     BRA 0x311C
34:            #else                                   // Lower nibble interface
35:                    if(DATA_PORT&0x08)
36:            #endif
37:                    {
38:                            E_PIN = 0;              // Reset clock line
310A  908C     BCF LATD, 0, ACCESS
39:                            DelayFor18TCY();
310C  EC17     CALL 0x262E, 0
310E  F013     NOP
40:                            E_PIN = 1;              // Clock out other nibble
3110  808C     BSF LATD, 0, ACCESS
41:                            DelayFor18TCY();
3112  EC17     CALL 0x262E, 0
3114  F013     NOP
42:                            E_PIN = 0;
3116  908C     BCF LATD, 0, ACCESS
43:                            RW_PIN = 0;             // Reset control line
3118  948C     BCF LATD, 2, ACCESS
44:                            return 1;               // Return TRUE
311A  0C01     RETLW 0x1
45:                    }
46:                    else                            // Busy bit is low
47:                    {
48:                            E_PIN = 0;              // Reset clock line
311C  908C     BCF LATD, 0, ACCESS
49:                            DelayFor18TCY();
311E  EC17     CALL 0x262E, 0
3120  F013     NOP
50:                            E_PIN = 1;              // Clock out other nibble
3122  808C     BSF LATD, 0, ACCESS
51:                            DelayFor18TCY();
3124  EC17     CALL 0x262E, 0
3126  F013     NOP
52:                            E_PIN = 0;
3128  908C     BCF LATD, 0, ACCESS
53:                            RW_PIN = 0;             // Reset control line
312A  948C     BCF LATD, 2, ACCESS
54:                            return 0;               // Return FALSE
55:                    }
56:            #endif
57:            }
312C  0C00     RETLW 0x0
58:            
---  C:/MPLabXProjects/Group_Project/ecng3006-project/Menu/Temperature.c  -------------------------------
1:             //Adapted temperature sensor from Ismaeel Hosein (2018)
2:             #include <p18f452.h> 
3:             #include "delays.h"
4:             #include "xlcd.h"
5:             #include "ow.h"
6:             #include <stdlib.h> 
7:             #include <stdio.h> 
8:             #include <math.h> 
9:             #include <string.h> 
10:            
11:            void TemperatureSetup(void) {               //Setup of the temperature sensor
12:              ow_reset(); 
1ADA  DF44     RCALL ow_reset
13:              ow_write(0x0C); 
1ADC  0E0C     MOVLW 0xC
1ADE  6EE6     MOVWF POSTINC1, ACCESS
1AE0  DF70     RCALL ow_write
1AE2  52E5     MOVF POSTDEC1, F, ACCESS
14:              ow_write(0x00);
1AE4  6AE6     CLRF POSTINC1, ACCESS
1AE6  DF6D     RCALL ow_write
1AE8  52E5     MOVF POSTDEC1, F, ACCESS
15:              ow_reset(); 
1AEA  DF3C     RCALL ow_reset
16:              ow_write(0xAC); 
1AEC  0EAC     MOVLW 0xAC
1AEE  6EE6     MOVWF POSTINC1, ACCESS
1AF0  DF68     RCALL ow_write
1AF2  52E5     MOVF POSTDEC1, F, ACCESS
17:              ow_reset();
1AF4  EFB2     GOTO 0x1964
1AF6  F00C     NOP
18:            }
19:            
20:            float TemperatureMeasurement(void)          //Function to measure the temperature 
1AF8  CFD9     MOVFF FSR2, POSTINC1
1AFA  FFE6     NOP
1AFC  CFE1     MOVFF FSR1, FSR2
1AFE  FFD9     NOP
1B00  0E0A     MOVLW 0xA
1B02  26E1     ADDWF FSR1, F, ACCESS
21:            {
22:                int raw_reading = 0;                                //initialize variable for input data
1B04  6ADE     CLRF POSTINC2, ACCESS
1B06  6ADD     CLRF POSTDEC2, ACCESS
23:                int total_temperature = 0;                      //initialize variable for total temperature 
1B08  0E02     MOVLW 0x2
1B0A  6ADB     CLRF PLUSW2, ACCESS
1B0C  0E03     MOVLW 0x3
1B0E  6ADB     CLRF PLUSW2, ACCESS
24:                float average_temperature = 0.0;            //initialize variable for average temperature
1B10  0E04     MOVLW 0x4
1B12  6ADB     CLRF PLUSW2, ACCESS
1B14  0E05     MOVLW 0x5
1B16  6ADB     CLRF PLUSW2, ACCESS
1B18  0E06     MOVLW 0x6
1B1A  6ADB     CLRF PLUSW2, ACCESS
1B1C  0E07     MOVLW 0x7
1B1E  6ADB     CLRF PLUSW2, ACCESS
25:                int count = 0;                                          //initialize variable for count
1B20  0E08     MOVLW 0x8
1B22  6ADB     CLRF PLUSW2, ACCESS
1B24  0E09     MOVLW 0x9
1B26  6ADB     CLRF PLUSW2, ACCESS
26:                while( count < 101){                                //while loop to sample data multiple times
1B28  0E08     MOVLW 0x8
1B2A  CFDB     MOVFF PLUSW2, __tmp_0
1B2C  F014     NOP
1B2E  0E09     MOVLW 0x9
1B30  CFDB     MOVFF PLUSW2, digit_cnt
1B32  F015     NOP
1B34  90D8     BCF STATUS, 0, ACCESS
1B36  5015     MOVF digit_cnt, W, ACCESS
1B38  E604     BN 0x1B42
1B3A  0E65     MOVLW 0x65
1B3C  5C14     SUBWF __tmp_0, W, ACCESS
1B3E  0E00     MOVLW 0x0
1B40  5815     SUBWFB digit_cnt, W, ACCESS
1B42  E22F     BC 0x1BA2
1BA0  D7C3     BRA 0x1B28
27:            	ow_write(0xEE); 
1B44  0EEE     MOVLW 0xEE
1B46  6EE6     MOVWF POSTINC1, ACCESS
1B48  DF3C     RCALL ow_write
1B4A  52E5     MOVF POSTDEC1, F, ACCESS
28:                	ow_write(0x22);                                                                                                                                                                                                                                                                                                                                                                      
1B4C  0E22     MOVLW 0x22
1B4E  6EE6     MOVWF POSTINC1, ACCESS
1B50  DF38     RCALL ow_write
1B52  52E5     MOVF POSTDEC1, F, ACCESS
29:                	ow_reset(); 
1B54  DF07     RCALL ow_reset
30:                	ow_write(0xAA); 
1B56  0EAA     MOVLW 0xAA
1B58  6EE6     MOVWF POSTINC1, ACCESS
1B5A  DF33     RCALL ow_write
1B5C  52E5     MOVF POSTDEC1, F, ACCESS
31:            	raw_reading = ow_read();                //gets the reading and stores it in a variable
1B5E  DF6A     RCALL ow_read
1B60  6E14     MOVWF __tmp_0, ACCESS
1B62  6A15     CLRF digit_cnt, ACCESS
1B64  BE14     BTFSC __tmp_0, 7, ACCESS
1B66  6815     SETF digit_cnt, ACCESS
1B68  C014     MOVFF __tmp_0, POSTINC2
1B6A  FFDE     NOP
1B6C  C015     MOVFF digit_cnt, POSTDEC2
1B6E  FFDD     NOP
32:                	ow_reset();
1B70  DEF9     RCALL ow_reset
33:                	total_temperature = total_temperature + raw_reading;            //adds all the temperature readings
1B72  0E02     MOVLW 0x2
1B74  CFDB     MOVFF PLUSW2, prefix_cnt
1B76  F016     NOP
1B78  0E03     MOVLW 0x3
1B7A  CFDB     MOVFF PLUSW2, sign_char
1B7C  F017     NOP
1B7E  50DE     MOVF POSTINC2, W, ACCESS
1B80  2416     ADDWF prefix_cnt, W, ACCESS
1B82  6E14     MOVWF __tmp_0, ACCESS
1B84  50DD     MOVF POSTDEC2, W, ACCESS
1B86  2017     ADDWFC sign_char, W, ACCESS
1B88  6E15     MOVWF digit_cnt, ACCESS
1B8A  0E02     MOVLW 0x2
1B8C  C014     MOVFF __tmp_0, PLUSW2
1B8E  FFDB     NOP
1B90  0E03     MOVLW 0x3
1B92  C015     MOVFF digit_cnt, PLUSW2
1B94  FFDB     NOP
34:                    count++;                                            //increment count
1B96  0E08     MOVLW 0x8
1B98  2ADB     INCF PLUSW2, F, ACCESS
1B9A  0E09     MOVLW 0x9
1B9C  E3C5     BNC 0x1B28
1B9E  2ADB     INCF PLUSW2, F, ACCESS
35:                }
36:                 average_temperature = (float) total_temperature / 101;             //finds the average of all the values taken
1BA2  0E02     MOVLW 0x2
1BA4  CFDB     MOVFF PLUSW2, count
1BA6  F008     NOP
1BA8  0E03     MOVLW 0x3
1BAA  CFDB     MOVFF PLUSW2, cval
1BAC  F009     NOP
1BAE  EC80     CALL 0x1300, 0
1BB0  F009     NOP
1BB2  C007     MOVFF size, __tmp_0
1BB4  F014     NOP
1BB6  C008     MOVFF count, digit_cnt
1BB8  F015     NOP
1BBA  C009     MOVFF cval, prefix_cnt
1BBC  F016     NOP
1BBE  C00A     MOVFF larg, sign_char
1BC0  F017     NOP
1BC2  6A0C     CLRF 0xC, ACCESS
1BC4  6A0D     CLRF 0xD, ACCESS
1BC6  0ECA     MOVLW 0xCA
1BC8  6E0E     MOVWF romstring, ACCESS
1BCA  0E42     MOVLW 0x42
1BCC  6E0F     MOVWF 0xF, ACCESS
1BCE  EC45     CALL 0x148A, 0
1BD0  F00A     NOP
1BD2  0E04     MOVLW 0x4
1BD4  C007     MOVFF size, PLUSW2
1BD6  FFDB     NOP
1BD8  0E05     MOVLW 0x5
1BDA  C008     MOVFF count, PLUSW2
1BDC  FFDB     NOP
1BDE  0E06     MOVLW 0x6
1BE0  C009     MOVFF cval, PLUSW2
1BE2  FFDB     NOP
1BE4  0E07     MOVLW 0x7
1BE6  C00A     MOVFF larg, PLUSW2
1BE8  FFDB     NOP
37:                 return average_temperature;                                                       //return the value 
1BEA  0E04     MOVLW 0x4
1BEC  CFDB     MOVFF PLUSW2, __tmp_0
1BEE  F014     NOP
1BF0  0E05     MOVLW 0x5
1BF2  CFDB     MOVFF PLUSW2, digit_cnt
1BF4  F015     NOP
1BF6  0E06     MOVLW 0x6
1BF8  CFDB     MOVFF PLUSW2, prefix_cnt
1BFA  F016     NOP
1BFC  0E07     MOVLW 0x7
1BFE  CFDB     MOVFF PLUSW2, sign_char
1C00  F017     NOP
1C02  C014     MOVFF __tmp_0, have_precision
1C04  F006     NOP
1C06  C015     MOVFF digit_cnt, size
1C08  F007     NOP
1C0A  C016     MOVFF prefix_cnt, count
1C0C  F008     NOP
1C0E  C017     MOVFF sign_char, cval
1C10  F009     NOP
38:            }
1C12  0E0A     MOVLW 0xA
1C14  5CE1     SUBWF FSR1, W, ACCESS
1C16  E202     BC 0x1C1C
1C18  6AE1     CLRF FSR1, ACCESS
1C1A  52E5     MOVF POSTDEC1, F, ACCESS
1C1C  6EE1     MOVWF FSR1, ACCESS
1C1E  52E5     MOVF POSTDEC1, F, ACCESS
1C20  CFE7     MOVFF INDF1, FSR2
1C22  FFD9     NOP
1C24  0012     RETURN 0
39:            
40:            float whole_reading = 0.0;                      //initialize variable for the average temperature reading
41:            int extract_integer;                                //initialize variable for the whole number part of the average temperature 
42:            int extract_decimal;                                //initialize variable for the decimal part of the average temperature
43:            char array[20];                                        //initialize variable to store the value as a string array
44:            
45:            void ReadTemperature(){                                                                                     
46:                whole_reading =TemperatureMeasurement();                                    //call the function to measure the temperature
1C26  DF68     RCALL TemperatureMeasurement
1C28  C006     MOVFF have_precision, whole_reading
1C2A  F459     NOP
1C2C  C007     MOVFF size, 0x45A
1C2E  F45A     NOP
1C30  C008     MOVFF count, 0x45B
1C32  F45B     NOP
1C34  C009     MOVFF cval, 0x45C
1C36  F45C     NOP
47:                extract_integer = whole_reading;                                                    //extract the whole part of the average temperature
1C38  C006     MOVFF have_precision, size
1C3A  F007     NOP
1C3C  C45A     MOVFF 0x45A, count
1C3E  F008     NOP
1C40  C45B     MOVFF 0x45B, cval
1C42  F009     NOP
1C44  C45C     MOVFF 0x45C, larg
1C46  F00A     NOP
1C48  EC58     CALL 0x16B0, 0
1C4A  F00B     NOP
1C4C  C008     MOVFF count, extract_integer
1C4E  F423     NOP
1C50  C009     MOVFF cval, 0x424
1C52  F424     NOP
48:                extract_decimal = (whole_reading-extract_integer)*100;                 //extract the decimal part of the average temperature
1C54  EC80     CALL 0x1300, 0
1C56  F009     NOP
1C58  C007     MOVFF size, buf
1C5A  F018     NOP
1C5C  C008     MOVFF count, 0x19
1C5E  F019     NOP
1C60  C009     MOVFF cval, 0x1A
1C62  F01A     NOP
1C64  C00A     MOVFF larg, 0x1B
1C66  F01B     NOP
1C68  C007     MOVFF size, 0xC
1C6A  F00C     NOP
1C6C  C008     MOVFF count, 0xD
1C6E  F00D     NOP
1C70  C009     MOVFF cval, romstring
1C72  F00E     NOP
1C74  C00A     MOVFF larg, 0xF
1C76  F00F     NOP
1C78  C459     MOVFF whole_reading, size
1C7A  F007     NOP
1C7C  C45A     MOVFF 0x45A, count
1C7E  F008     NOP
1C80  C45B     MOVFF 0x45B, cval
1C82  F009     NOP
1C84  C45C     MOVFF 0x45C, larg
1C86  F00A     NOP
1C88  ECAE     CALL 0x135C, 0
1C8A  F009     NOP
1C8C  C007     MOVFF size, __tmp_0
1C8E  F014     NOP
1C90  C008     MOVFF count, digit_cnt
1C92  F015     NOP
1C94  C009     MOVFF cval, prefix_cnt
1C96  F016     NOP
1C98  C00A     MOVFF larg, sign_char
1C9A  F017     NOP
1C9C  6A0C     CLRF 0xC, ACCESS
1C9E  6A0D     CLRF 0xD, ACCESS
1CA0  0EC8     MOVLW 0xC8
1CA2  6E0E     MOVWF romstring, ACCESS
1CA4  0E42     MOVLW 0x42
1CA6  6E0F     MOVWF 0xF, ACCESS
1CA8  EC98     CALL 0x1530, 0
1CAA  F00A     NOP
1CAC  EC58     CALL 0x16B0, 0
1CAE  F00B     NOP
1CB0  C008     MOVFF count, extract_decimal
1CB2  F425     NOP
1CB4  C009     MOVFF cval, 0x426
1CB6  F426     NOP
49:                sprintf(array,"%3d.%01d",extract_integer,extract_decimal);          //convert the values to a string array
1CB8  C008     MOVFF count, POSTINC1
1CBA  FFE6     NOP
1CBC  C009     MOVFF cval, POSTINC1
1CBE  FFE6     NOP
1CC0  C423     MOVFF extract_integer, POSTINC1
1CC2  FFE6     NOP
1CC4  C424     MOVFF 0x424, POSTINC1
1CC6  FFE6     NOP
1CC8  0EC2     MOVLW 0xC2
1CCA  6E14     MOVWF __tmp_0, ACCESS
1CCC  0E29     MOVLW 0x29
1CCE  6E15     MOVWF digit_cnt, ACCESS
1CD0  6A16     CLRF prefix_cnt, ACCESS
1CD2  C014     MOVFF __tmp_0, POSTINC1
1CD4  FFE6     NOP
1CD6  6EE6     MOVWF POSTINC1, ACCESS
1CD8  C016     MOVFF prefix_cnt, POSTINC1
1CDA  FFE6     NOP
1CDC  0E27     MOVLW 0x27
1CDE  6EE6     MOVWF POSTINC1, ACCESS
1CE0  0E04     MOVLW 0x4
1CE2  6EE6     MOVWF POSTINC1, ACCESS
1CE4  EC5F     CALL 0x28BE, 0
1CE6  F014     NOP
1CE8  6E17     MOVWF sign_char, ACCESS
1CEA  0E09     MOVLW 0x9
1CEC  5EE1     SUBWF FSR1, F, ACCESS
1CEE  5017     MOVF sign_char, W, ACCESS
50:                SetDDRamAddr(0x50); 
1CF0  0E50     MOVLW 0x50
1CF2  6EE6     MOVWF POSTINC1, ACCESS
1CF4  EC7B     CALL 0x2CF6, 0
1CF6  F016     NOP
1CF8  52E5     MOVF POSTDEC1, F, ACCESS
51:                putrsXLCD("Temp:           ");
1CFA  0EB1     MOVLW 0xB1
1CFC  6EE6     MOVWF POSTINC1, ACCESS
1CFE  0E29     MOVLW 0x29
1D00  6EE6     MOVWF POSTINC1, ACCESS
1D02  ECC9     CALL 0x2D92, 0
1D04  F016     NOP
1D06  52E5     MOVF POSTDEC1, F, ACCESS
1D08  52E5     MOVF POSTDEC1, F, ACCESS
52:                while(BusyXLCD());
1D0A  EC7C     CALL 0x30F8, 0
1D0C  F018     NOP
1D0E  0900     IORLW 0x0
1D10  E1FC     BNZ 0x1D0A
53:                SetDDRamAddr(0x59);
1D12  0E59     MOVLW 0x59
1D14  6EE6     MOVWF POSTINC1, ACCESS
1D16  EC7B     CALL 0x2CF6, 0
1D18  F016     NOP
1D1A  52E5     MOVF POSTDEC1, F, ACCESS
54:                putsXLCD(array);
1D1C  0E27     MOVLW 0x27
1D1E  6EE6     MOVWF POSTINC1, ACCESS
1D20  0E04     MOVLW 0x4
1D22  6EE6     MOVWF POSTINC1, ACCESS
1D24  EC3C     CALL 0x2E78, 0
1D26  F017     NOP
1D28  52E5     MOVF POSTDEC1, F, ACCESS
1D2A  52E5     MOVF POSTDEC1, F, ACCESS
55:                while(BusyXLCD());
1D2C  EC7C     CALL 0x30F8, 0
1D2E  F018     NOP
1D30  0900     IORLW 0x0
1D32  E1FC     BNZ 0x1D2C
56:                SetDDRamAddr(0x5E);
1D34  0E5E     MOVLW 0x5E
1D36  6EE6     MOVWF POSTINC1, ACCESS
1D38  EC7B     CALL 0x2CF6, 0
1D3A  F016     NOP
1D3C  52E5     MOVF POSTDEC1, F, ACCESS
57:                putrsXLCD(" C");
1D3E  0EAE     MOVLW 0xAE
1D40  6EE6     MOVWF POSTINC1, ACCESS
1D42  0E29     MOVLW 0x29
1D44  6EE6     MOVWF POSTINC1, ACCESS
1D46  ECC9     CALL 0x2D92, 0
1D48  F016     NOP
1D4A  52E5     MOVF POSTDEC1, F, ACCESS
1D4C  52E5     MOVF POSTDEC1, F, ACCESS
58:                while(BusyXLCD());
1D4E  EC7C     CALL 0x30F8, 0
1D50  F018     NOP
1D52  0900     IORLW 0x0
1D54  E1FC     BNZ 0x1D4E
59:                return;
60:            }
1D56  0012     RETURN 0
61:            
---  C:/MPLabXProjects/Group_Project/ecng3006-project/Menu/Speaker.c  -----------------------------------
1:             #include <p18f452.h>
2:             #include <pwm.h>
3:             #include <timers.h>
4:             #include <delays.h>
5:             #include "Prototypes.h"
6:             
7:             
8:             void bpmAlarm(void){
21C0  CFD9     MOVFF FSR2, POSTINC1
21C2  FFE6     NOP
21C4  CFE1     MOVFF FSR1, FSR2
21C6  FFD9     NOP
21C8  0E02     MOVLW 0x2
21CA  26E1     ADDWF FSR1, F, ACCESS
9:                 
10:            int count = 0;
21CC  6ADE     CLRF POSTINC2, ACCESS
21CE  6ADD     CLRF POSTDEC2, ACCESS
11:            TRISCbits.RC2 = 0;//Configure RC2 as an output
21D0  9494     BCF TRISC, 2, ACCESS
12:            SetDCPWM1(60);
21D2  0E3C     MOVLW 0x3C
21D4  6EE6     MOVWF POSTINC1, ACCESS
21D6  6AE6     CLRF POSTINC1, ACCESS
21D8  EC1D     CALL 0x2C3A, 0
21DA  F016     NOP
21DC  52E5     MOVF POSTDEC1, F, ACCESS
21DE  52E5     MOVF POSTDEC1, F, ACCESS
13:            OpenTimer2( TIMER_INT_OFF & T2_PS_1_16 & T2_POST_1_1);//Configure and enable timer2
21E0  0E06     MOVLW 0x6
21E2  6EE6     MOVWF POSTINC1, ACCESS
21E4  EC61     CALL 0x30C2, 0
21E6  F018     NOP
21E8  52E5     MOVF POSTDEC1, F, ACCESS
14:            
15:            
16:                for(count = 3; count > 0; count--){
21EA  0E03     MOVLW 0x3
21EC  6EDE     MOVWF POSTINC2, ACCESS
21EE  6ADD     CLRF POSTDEC2, ACCESS
21F0  CFDE     MOVFF POSTINC2, __tmp_0
21F2  F014     NOP
21F4  CFDD     MOVFF POSTDEC2, digit_cnt
21F6  F015     NOP
21F8  3415     RLCF digit_cnt, W, ACCESS
21FA  E242     BC 0x2280
21FC  5014     MOVF __tmp_0, W, ACCESS
21FE  0800     SUBLW 0x0
2200  0E00     MOVLW 0x0
2202  5415     SUBFWB digit_cnt, W, ACCESS
2204  E23D     BC 0x2280
2276  06DF     DECF INDF2, F, ACCESS
2278  0E01     MOVLW 0x1
227A  E2BA     BC 0x21F0
227C  06DB     DECF PLUSW2, F, ACCESS
227E  D7B8     BRA 0x21F0
17:                    
18:                    OpenPWM1(0xEE); //opening PWM
2206  0EEE     MOVLW 0xEE
2208  6EE6     MOVWF POSTINC1, ACCESS
220A  EC97     CALL 0x312E, 0
220C  F018     NOP
220E  52E5     MOVF POSTDEC1, F, ACCESS
19:                    Delay10KTCYx(16);//Delay
2210  0E10     MOVLW 0x10
2212  6EE6     MOVWF POSTINC1, ACCESS
2214  ECAF     CALL 0x315E, 0
2216  F018     NOP
2218  52E5     MOVF POSTDEC1, F, ACCESS
20:                    ClosePWM1();
221A  EC07     CALL 0xE, 0
221C  F000     NOP
21:                    Delay10KTCYx(16);//Delay
221E  0E10     MOVLW 0x10
2220  6EE6     MOVWF POSTINC1, ACCESS
2222  ECAF     CALL 0x315E, 0
2224  F018     NOP
2226  52E5     MOVF POSTDEC1, F, ACCESS
22:            
23:                    OpenPWM1(0xEE); //opening PWM
2228  0EEE     MOVLW 0xEE
222A  6EE6     MOVWF POSTINC1, ACCESS
222C  EC97     CALL 0x312E, 0
222E  F018     NOP
2230  52E5     MOVF POSTDEC1, F, ACCESS
24:                    Delay10KTCYx(16);//Delay
2232  0E10     MOVLW 0x10
2234  6EE6     MOVWF POSTINC1, ACCESS
2236  ECAF     CALL 0x315E, 0
2238  F018     NOP
223A  52E5     MOVF POSTDEC1, F, ACCESS
25:                    ClosePWM1();
223C  EC07     CALL 0xE, 0
223E  F000     NOP
26:                    Delay10KTCYx(16);//Delay
2240  0E10     MOVLW 0x10
2242  6EE6     MOVWF POSTINC1, ACCESS
2244  ECAF     CALL 0x315E, 0
2246  F018     NOP
2248  52E5     MOVF POSTDEC1, F, ACCESS
27:                    
28:                    OpenPWM1(0xEE); //opening PWM
224A  0EEE     MOVLW 0xEE
224C  6EE6     MOVWF POSTINC1, ACCESS
224E  EC97     CALL 0x312E, 0
2250  F018     NOP
2252  52E5     MOVF POSTDEC1, F, ACCESS
29:                    Delay10KTCYx(16);//Delay
2254  0E10     MOVLW 0x10
2256  6EE6     MOVWF POSTINC1, ACCESS
2258  ECAF     CALL 0x315E, 0
225A  F018     NOP
225C  52E5     MOVF POSTDEC1, F, ACCESS
30:                    ClosePWM1();
225E  EC07     CALL 0xE, 0
2260  F000     NOP
31:                    Delay10KTCYx(16);//Delay
2262  0E10     MOVLW 0x10
2264  6EE6     MOVWF POSTINC1, ACCESS
2266  ECAF     CALL 0x315E, 0
2268  F018     NOP
226A  52E5     MOVF POSTDEC1, F, ACCESS
32:                    
33:                    Delay10KTCYx(100);//wait to repeat
226C  0E64     MOVLW 0x64
226E  6EE6     MOVWF POSTINC1, ACCESS
2270  ECAF     CALL 0x315E, 0
2272  F018     NOP
2274  52E5     MOVF POSTDEC1, F, ACCESS
34:            }
35:            }
2280  0E02     MOVLW 0x2
2282  5CE1     SUBWF FSR1, W, ACCESS
2284  E202     BC 0x228A
2286  6AE1     CLRF FSR1, ACCESS
2288  52E5     MOVF POSTDEC1, F, ACCESS
228A  6EE1     MOVWF FSR1, ACCESS
228C  52E5     MOVF POSTDEC1, F, ACCESS
228E  CFE7     MOVFF INDF1, FSR2
2290  FFD9     NOP
2292  0012     RETURN 0
36:            
37:            void hrvAlarm(void){
2294  CFD9     MOVFF FSR2, POSTINC1
2296  FFE6     NOP
2298  CFE1     MOVFF FSR1, FSR2
229A  FFD9     NOP
229C  0E02     MOVLW 0x2
229E  26E1     ADDWF FSR1, F, ACCESS
38:                int count = 0;
22A0  6ADE     CLRF POSTINC2, ACCESS
22A2  6ADD     CLRF POSTDEC2, ACCESS
39:            	TRISCbits.RC2 = 0;//Configure RC2 as an output
22A4  9494     BCF TRISC, 2, ACCESS
40:            	SetDCPWM1(60);
22A6  0E3C     MOVLW 0x3C
22A8  6EE6     MOVWF POSTINC1, ACCESS
22AA  6AE6     CLRF POSTINC1, ACCESS
22AC  EC1D     CALL 0x2C3A, 0
22AE  F016     NOP
22B0  52E5     MOVF POSTDEC1, F, ACCESS
22B2  52E5     MOVF POSTDEC1, F, ACCESS
41:            	//Configure and enable timer2
42:            	OpenTimer2( TIMER_INT_OFF & T2_PS_1_16 & T2_POST_1_1);
22B4  0E06     MOVLW 0x6
22B6  6EE6     MOVWF POSTINC1, ACCESS
22B8  EC61     CALL 0x30C2, 0
22BA  F018     NOP
22BC  52E5     MOVF POSTDEC1, F, ACCESS
43:            
44:                for(count = 3; count > 0; count--){
22BE  0E03     MOVLW 0x3
22C0  6EDE     MOVWF POSTINC2, ACCESS
22C2  6ADD     CLRF POSTDEC2, ACCESS
22C4  CFDE     MOVFF POSTINC2, __tmp_0
22C6  F014     NOP
22C8  CFDD     MOVFF POSTDEC2, digit_cnt
22CA  F015     NOP
22CC  3415     RLCF digit_cnt, W, ACCESS
22CE  E242     BC 0x2354
22D0  5014     MOVF __tmp_0, W, ACCESS
22D2  0800     SUBLW 0x0
22D4  0E00     MOVLW 0x0
22D6  5415     SUBFWB digit_cnt, W, ACCESS
22D8  E23D     BC 0x2354
234A  06DF     DECF INDF2, F, ACCESS
234C  0E01     MOVLW 0x1
234E  E2BA     BC 0x22C4
2350  06DB     DECF PLUSW2, F, ACCESS
2352  D7B8     BRA 0x22C4
45:                    //C4
46:                    OpenPWM1(0xEE); //opening PWM
22DA  0EEE     MOVLW 0xEE
22DC  6EE6     MOVWF POSTINC1, ACCESS
22DE  EC97     CALL 0x312E, 0
22E0  F018     NOP
22E2  52E5     MOVF POSTDEC1, F, ACCESS
47:                    Delay10KTCYx(16);//Delay
22E4  0E10     MOVLW 0x10
22E6  6EE6     MOVWF POSTINC1, ACCESS
22E8  ECAF     CALL 0x315E, 0
22EA  F018     NOP
22EC  52E5     MOVF POSTDEC1, F, ACCESS
48:                    ClosePWM1();
22EE  EC07     CALL 0xE, 0
22F0  F000     NOP
49:                    Delay10KTCYx(16);//Delay
22F2  0E10     MOVLW 0x10
22F4  6EE6     MOVWF POSTINC1, ACCESS
22F6  ECAF     CALL 0x315E, 0
22F8  F018     NOP
22FA  52E5     MOVF POSTDEC1, F, ACCESS
50:            	//E4
51:                    OpenPWM1(0xBD); //opening PWM
22FC  0EBD     MOVLW 0xBD
22FE  6EE6     MOVWF POSTINC1, ACCESS
2300  EC97     CALL 0x312E, 0
2302  F018     NOP
2304  52E5     MOVF POSTDEC1, F, ACCESS
52:                    Delay10KTCYx(16);//Delay
2306  0E10     MOVLW 0x10
2308  6EE6     MOVWF POSTINC1, ACCESS
230A  ECAF     CALL 0x315E, 0
230C  F018     NOP
230E  52E5     MOVF POSTDEC1, F, ACCESS
53:                    ClosePWM1();
2310  EC07     CALL 0xE, 0
2312  F000     NOP
54:                    Delay10KTCYx(16);//Delay
2314  0E10     MOVLW 0x10
2316  6EE6     MOVWF POSTINC1, ACCESS
2318  ECAF     CALL 0x315E, 0
231A  F018     NOP
231C  52E5     MOVF POSTDEC1, F, ACCESS
55:                    //G4
56:                    OpenPWM1(0x9F); //opening PWM
231E  0E9F     MOVLW 0x9F
2320  6EE6     MOVWF POSTINC1, ACCESS
2322  EC97     CALL 0x312E, 0
2324  F018     NOP
2326  52E5     MOVF POSTDEC1, F, ACCESS
57:                    Delay10KTCYx(16);//Delay
2328  0E10     MOVLW 0x10
232A  6EE6     MOVWF POSTINC1, ACCESS
232C  ECAF     CALL 0x315E, 0
232E  F018     NOP
2330  52E5     MOVF POSTDEC1, F, ACCESS
58:                    ClosePWM1();
2332  EC07     CALL 0xE, 0
2334  F000     NOP
59:                    Delay10KTCYx(16);//Delay
2336  0E10     MOVLW 0x10
2338  6EE6     MOVWF POSTINC1, ACCESS
233A  ECAF     CALL 0x315E, 0
233C  F018     NOP
233E  52E5     MOVF POSTDEC1, F, ACCESS
60:                    
61:                    Delay10KTCYx(100);//wait to repeat
2340  0E64     MOVLW 0x64
2342  6EE6     MOVWF POSTINC1, ACCESS
2344  ECAF     CALL 0x315E, 0
2346  F018     NOP
2348  52E5     MOVF POSTDEC1, F, ACCESS
62:                }
63:            }    
2354  0E02     MOVLW 0x2
2356  5CE1     SUBWF FSR1, W, ACCESS
2358  E202     BC 0x235E
235A  6AE1     CLRF FSR1, ACCESS
235C  52E5     MOVF POSTDEC1, F, ACCESS
235E  6EE1     MOVWF FSR1, ACCESS
2360  52E5     MOVF POSTDEC1, F, ACCESS
2362  CFE7     MOVFF INDF1, FSR2
2364  FFD9     NOP
2366  0012     RETURN 0
64:                
65:            
---  C:/MPLabXProjects/Group_Project/ecng3006-project/Menu/LCD.c  ---------------------------------------
1:             #include <p18f452.h> 
2:             #include "delays.h"
3:             #include "xlcd.h"
4:             
5:             //Function Prototypes
6:             void LcdSetup(void);
7:             
8:             void DelayFor18TCY(void){
9:                  Nop();
262E  0000     NOP
10:                 Nop(); 
2630  0000     NOP
11:                 Nop(); 
2632  0000     NOP
12:                 Nop(); 
2634  0000     NOP
13:                 Nop(); 
2636  0000     NOP
14:                 Nop(); 
2638  0000     NOP
15:                 Nop(); 
263A  0000     NOP
16:                 Nop(); 
263C  0000     NOP
17:                 Nop();
263E  0000     NOP
18:                 Nop(); 
2640  0000     NOP
19:                 Nop(); 
2642  0000     NOP
20:                 Nop(); 
2644  0000     NOP
21:                 Nop(); 
2646  0000     NOP
22:                 Nop();
2648  0000     NOP
23:                 return;
264A  D000     BRA 0x264C
24:            }
264C  0012     RETURN 0
25:            
26:            void DelayXLCD(void){
27:                Delay1KTCYx(5);	
264E  0E05     MOVLW 0x5
2650  6EE6     MOVWF POSTINC1, ACCESS
2652  ECEE     CALL 0x31DC, 0
2654  F018     NOP
2656  52E5     MOVF POSTDEC1, F, ACCESS
28:                return;
29:            }
2658  0012     RETURN 0
30:            
31:            void DelayPORXLCD(void){
32:                Delay1KTCYx(15);
265A  0E0F     MOVLW 0xF
265C  6EE6     MOVWF POSTINC1, ACCESS
265E  ECEE     CALL 0x31DC, 0
2660  F018     NOP
2662  52E5     MOVF POSTDEC1, F, ACCESS
33:                return;
34:            }
2664  0012     RETURN 0
35:            void LcdSetup(void)                                                 //Setup for the LCD
36:            { 
37:                while( BusyXLCD());
2666  EC7C     CALL 0x30F8, 0
2668  F018     NOP
266A  0900     IORLW 0x0
266C  E1FC     BNZ LcdSetup
38:                OpenXLCD(FOUR_BIT & LINES_5X7); 
266E  0E28     MOVLW 0x28
2670  6EE6     MOVWF POSTINC1, ACCESS
2672  ECA0     CALL 0x2740, 0
2674  F013     NOP
2676  52E5     MOVF POSTDEC1, F, ACCESS
39:                while( BusyXLCD());
2678  EC7C     CALL 0x30F8, 0
267A  F018     NOP
267C  0900     IORLW 0x0
267E  E1FC     BNZ 0x2678
40:                WriteCmdXLCD( FOUR_BIT & LINES_5X7);
2680  0E28     MOVLW 0x28
2682  6EE6     MOVWF POSTINC1, ACCESS
2684  EC16     CALL 0x2E2C, 0
2686  F017     NOP
2688  52E5     MOVF POSTDEC1, F, ACCESS
41:                while( BusyXLCD());
268A  EC7C     CALL 0x30F8, 0
268C  F018     NOP
268E  0900     IORLW 0x0
2690  E1FC     BNZ 0x268A
42:                WriteCmdXLCD(BLINK_ON);
2692  0E0F     MOVLW 0xF
2694  6EE6     MOVWF POSTINC1, ACCESS
2696  EC16     CALL 0x2E2C, 0
2698  F017     NOP
269A  52E5     MOVF POSTDEC1, F, ACCESS
43:                while( BusyXLCD() );
269C  EC7C     CALL 0x30F8, 0
269E  F018     NOP
26A0  0900     IORLW 0x0
26A2  E1FC     BNZ 0x269C
44:                WriteCmdXLCD( SHIFT_DISP_LEFT);
26A4  0E06     MOVLW 0x6
26A6  6EE6     MOVWF POSTINC1, ACCESS
26A8  EC16     CALL 0x2E2C, 0
26AA  F017     NOP
26AC  52E5     MOVF POSTDEC1, F, ACCESS
45:                while (BusyXLCD());
26AE  EC7C     CALL 0x30F8, 0
26B0  F018     NOP
26B2  0900     IORLW 0x0
26B4  E1FC     BNZ 0x26AE
46:            }
26B6  0012     RETURN 0
47:            
48:            void MenuMain(void)
49:            {
50:                    SetDDRamAddr(0x00); 
26B8  6AE6     CLRF POSTINC1, ACCESS
26BA  EC7B     CALL 0x2CF6, 0
26BC  F016     NOP
26BE  52E5     MOVF POSTDEC1, F, ACCESS
51:                    putrsXLCD("------MENU------");
26C0  0E9D     MOVLW 0x9D
26C2  6EE6     MOVWF POSTINC1, ACCESS
26C4  0E29     MOVLW 0x29
26C6  6EE6     MOVWF POSTINC1, ACCESS
26C8  ECC9     CALL 0x2D92, 0
26CA  F016     NOP
26CC  52E5     MOVF POSTDEC1, F, ACCESS
26CE  52E5     MOVF POSTDEC1, F, ACCESS
52:                    while(BusyXLCD());
26D0  EC7C     CALL 0x30F8, 0
26D2  F018     NOP
26D4  0900     IORLW 0x0
26D6  E1FC     BNZ 0x26D0
53:                    SetDDRamAddr(0x40);
26D8  0E40     MOVLW 0x40
26DA  6EE6     MOVWF POSTINC1, ACCESS
26DC  EC7B     CALL 0x2CF6, 0
26DE  F016     NOP
26E0  52E5     MOVF POSTDEC1, F, ACCESS
54:                    putrsXLCD("Live Readings  A");
26E2  0E8C     MOVLW 0x8C
26E4  6EE6     MOVWF POSTINC1, ACCESS
26E6  0E29     MOVLW 0x29
26E8  6EE6     MOVWF POSTINC1, ACCESS
26EA  ECC9     CALL 0x2D92, 0
26EC  F016     NOP
26EE  52E5     MOVF POSTDEC1, F, ACCESS
26F0  52E5     MOVF POSTDEC1, F, ACCESS
55:                    while(BusyXLCD());
26F2  EC7C     CALL 0x30F8, 0
26F4  F018     NOP
26F6  0900     IORLW 0x0
26F8  E1FC     BNZ 0x26F2
56:                    SetDDRamAddr(0x10);
26FA  0E10     MOVLW 0x10
26FC  6EE6     MOVWF POSTINC1, ACCESS
26FE  EC7B     CALL 0x2CF6, 0
2700  F016     NOP
2702  52E5     MOVF POSTDEC1, F, ACCESS
57:                    putrsXLCD("Set Intervals  B");
2704  0E7B     MOVLW 0x7B
2706  6EE6     MOVWF POSTINC1, ACCESS
2708  0E29     MOVLW 0x29
270A  6EE6     MOVWF POSTINC1, ACCESS
270C  ECC9     CALL 0x2D92, 0
270E  F016     NOP
2710  52E5     MOVF POSTDEC1, F, ACCESS
2712  52E5     MOVF POSTDEC1, F, ACCESS
58:                    while(BusyXLCD());
2714  EC7C     CALL 0x30F8, 0
2716  F018     NOP
2718  0900     IORLW 0x0
271A  E1FC     BNZ 0x2714
59:                    SetDDRamAddr(0x50);
271C  0E50     MOVLW 0x50
271E  6EE6     MOVWF POSTINC1, ACCESS
2720  EC7B     CALL 0x2CF6, 0
2722  F016     NOP
2724  52E5     MOVF POSTDEC1, F, ACCESS
60:                    putrsXLCD("Records        C");
2726  0E6A     MOVLW 0x6A
2728  6EE6     MOVWF POSTINC1, ACCESS
272A  0E29     MOVLW 0x29
272C  6EE6     MOVWF POSTINC1, ACCESS
272E  ECC9     CALL 0x2D92, 0
2730  F016     NOP
2732  52E5     MOVF POSTDEC1, F, ACCESS
2734  52E5     MOVF POSTDEC1, F, ACCESS
61:                    while(BusyXLCD());
2736  EC7C     CALL 0x30F8, 0
2738  F018     NOP
273A  0900     IORLW 0x0
273C  E1FC     BNZ 0x2736
62:            }
273E  0012     RETURN 0
---  C:/MPLabXProjects/Group_Project/ecng3006-project/Menu/HeartRate.c  ---------------------------------
1:             #include <p18f452.h>
2:             #include "xlcd.h"
3:             #include "delays.h"
4:             #include <timers.h>
5:             #include <stdlib.h>
6:             #include <string.h>
7:             
8:             int heartBeatCounter = 0;
9:             char heartRateOutput [3];
10:            int heartRate = 0;
11:            int heartRate1;
12:            int startHRV = 0;
13:            extern int startTimer;
14:            
15:            
16:            void low_isr (void);
17:            void heartRateCal();
18:            
19:            void heartRateCal(){
20:                heartRate = (60*heartBeatCounter)/10;
280E  0E3C     MOVLW 0x3C
2810  6E08     MOVWF count, ACCESS
2812  6A09     CLRF cval, ACCESS
2814  C445     MOVFF heartBeatCounter, 0xD
2816  F00D     NOP
2818  C446     MOVFF 0x446, romstring
281A  F00E     NOP
281C  EC2B     CALL 0x1656, 0
281E  F00B     NOP
2820  C006     MOVFF have_precision, heartRate
2822  F447     NOP
2824  C007     MOVFF size, 0x448
2826  F448     NOP
2828  0E0A     MOVLW 0xA
282A  6E0D     MOVWF 0xD, ACCESS
282C  6A0E     CLRF romstring, ACCESS
282E  C006     MOVFF have_precision, count
2830  F008     NOP
2832  C007     MOVFF size, cval
2834  F009     NOP
2836  EC05     CALL 0x160A, 0
2838  F00B     NOP
283A  C008     MOVFF count, heartRate
283C  F447     NOP
283E  C009     MOVFF cval, 0x448
2840  F448     NOP
21:                heartRate1=heartRate;
2842  C008     MOVFF count, heartRate1
2844  F44E     NOP
2846  C009     MOVFF cval, 0x44F
2848  F44F     NOP
22:                //itoa(heartRate, heartRateOutput);
23:                
24:                //SetDDRamAddr(0x00);
25:                //putrsXLCD("P_Rate:         ");
26:                //while(BusyXLCD());
27:                //SetDDRamAddr(0x09); 
28:                //putsXLCD(heartRateOutput);
29:                //while(BusyXLCD());
30:                //SetDDRamAddr(0x0C);
31:                //putrsXLCD(" bpm");
32:                //while(BusyXLCD());
33:                
34:                if(heartRate > 110){
284A  0104     MOVLB 0x4
284C  3409     RLCF cval, W, ACCESS
284E  E207     BC 0x285E
2850  5147     MOVF 0x47, W, BANKED
2852  086E     SUBLW 0x6E
2854  0E00     MOVLW 0x0
2856  5548     SUBFWB 0x48, W, BANKED
2858  E202     BC 0x285E
35:                    bpmAlarm();
285A  ECE0     CALL 0x21C0, 0
285C  F010     NOP
36:                }
37:               // if(heartRate < 60){
38:               //     speaker();
39:               // }
40:                
41:                heartRate = 0;
285E  0104     MOVLB 0x4
2860  6B47     CLRF 0x47, BANKED
2862  6B48     CLRF 0x48, BANKED
42:                heartBeatCounter = 0;
2864  6B45     CLRF 0x45, BANKED
2866  6B46     CLRF 0x46, BANKED
43:                memset(heartRateOutput, 0, sizeof(heartRateOutput));    //Clears char[]
2868  0E03     MOVLW 0x3
286A  6EE6     MOVWF POSTINC1, ACCESS
286C  6AE6     CLRF POSTINC1, ACCESS
286E  6AE6     CLRF POSTINC1, ACCESS
2870  0E4B     MOVLW 0x4B
2872  6EE6     MOVWF POSTINC1, ACCESS
2874  0E04     MOVLW 0x4
2876  6EE6     MOVWF POSTINC1, ACCESS
2878  EC56     CALL 0x2AAC, 0
287A  F015     NOP
287C  6E14     MOVWF __tmp_0, ACCESS
287E  0E05     MOVLW 0x5
2880  5EE1     SUBWF FSR1, F, ACCESS
2882  5014     MOVF __tmp_0, W, ACCESS
44:                WriteTimer0(0x676A);   
2884  0E6A     MOVLW 0x6A
2886  6EE6     MOVWF POSTINC1, ACCESS
2888  0E67     MOVLW 0x67
288A  6EE6     MOVWF POSTINC1, ACCESS
288C  EC29     CALL 0x3052, 0
288E  F018     NOP
2890  52E5     MOVF POSTDEC1, F, ACCESS
2892  52E5     MOVF POSTDEC1, F, ACCESS
45:              
46:            }
2894  0012     RETURN 0
47:            
48:            void irPulseSetup(){
49:                INTCON3bits.INT2IE = 1;     //Enable INT2 interrupt
2896  88F0     BSF INTCON3, 4, ACCESS
50:                INTCON3bits.INT2IF = 0;     //Clear INT2 interrupt flag
2898  92F0     BCF INTCON3, 1, ACCESS
51:                INTCON3bits.INT2IP = 0;     //Set INT2 priority to low
289A  9EF0     BCF INTCON3, 7, ACCESS
52:                INTCON2bits.INTEDG2 = 1;    //Set to interrupt on rising edge 
289C  88F1     BSF INTCON2, 4, ACCESS
53:                TRISBbits.RB2 = 1;          //Configure RB2 as an input for output from IR module
289E  8493     BSF TRISB, 2, ACCESS
54:            }
28A0  0012     RETURN 0
55:            
56:            void timer0Setup(){
57:                //Timer 0 Setup 
58:                OpenTimer0(TIMER_INT_ON &
59:                T0_16BIT & T0_SOURCE_INT &
60:                T0_EDGE_RISE & T0_PS_1_256);
28A2  0E87     MOVLW 0x87
28A4  6EE6     MOVWF POSTINC1, ACCESS
28A6  EC45     CALL 0x308A, 0
28A8  F018     NOP
28AA  52E5     MOVF POSTDEC1, F, ACCESS
61:                INTCONbits.T0IE = 1;        //Enable TMR0 overflow interrupt bit 
28AC  8AF2     BSF INTCON, 5, ACCESS
62:                INTCON2bits.T0IP = 1;       //Set TMR0 Interrupt as high priority
28AE  84F1     BSF INTCON2, 2, ACCESS
63:                INTCONbits.T0IF = 0;        //Clearing TMR0 Interrupt Flag
28B0  94F2     BCF INTCON, 2, ACCESS
64:            }
28B2  0012     RETURN 0
65:            
66:            void pulseCounting(){
67:                heartBeatCounter = heartBeatCounter++;
28B4  0104     MOVLB 0x4
28B6  2B45     INCF 0x45, F, BANKED
28B8  0E00     MOVLW 0x0
28BA  2346     ADDWFC 0x46, F, BANKED
68:            }
28BC  0012     RETURN 0
69:            
70:            /*void TimerStart(){
71:                if(startTimer == 1){
72:                    WriteTimer0(0xF0BD);
73:                    startTimer = 0;
74:                }
75:            }*/
76:            
77:            
78:            
79:            
80:            
81:            
82:            
83:                
84:                
85:             
86:            
---  C:/MPLabXProjects/Group_Project/ecng3006-project/Menu/HRVandGlucose.c  -----------------------------
1:             #include <p18f452.h>
2:             #include "xlcd.h"
3:             #include "delays.h"
4:             #include <timers.h>
5:             #include <stdlib.h>
6:             #include <string.h>
7:             #include "Prototypes.h"
8:             
9:             extern long double pNN50;
10:            char hrv_Output1[2];
11:            char heartRateOutput1 [3];
12:            extern int heartRate1;
13:            
14:            void HeartRt(void){   
15:                itoa(heartRate1, heartRateOutput1);
2368  0E52     MOVLW 0x52
236A  6EE6     MOVWF POSTINC1, ACCESS
236C  0E04     MOVLW 0x4
236E  6EE6     MOVWF POSTINC1, ACCESS
2370  C44E     MOVFF heartRate1, POSTINC1
2372  FFE6     NOP
2374  C44F     MOVFF 0x44F, POSTINC1
2376  FFE6     NOP
2378  EC7D     CALL 0x24FA, 0
237A  F012     NOP
237C  52E5     MOVF POSTDEC1, F, ACCESS
237E  52E5     MOVF POSTDEC1, F, ACCESS
2380  52E5     MOVF POSTDEC1, F, ACCESS
2382  52E5     MOVF POSTDEC1, F, ACCESS
16:            
17:                SetDDRamAddr(0x00);
2384  6AE6     CLRF POSTINC1, ACCESS
2386  EC7B     CALL 0x2CF6, 0
2388  F016     NOP
238A  52E5     MOVF POSTDEC1, F, ACCESS
18:                putrsXLCD("P_Rate:         ");
238C  0EFC     MOVLW 0xFC
238E  6EE6     MOVWF POSTINC1, ACCESS
2390  0E29     MOVLW 0x29
2392  6EE6     MOVWF POSTINC1, ACCESS
2394  ECC9     CALL 0x2D92, 0
2396  F016     NOP
2398  52E5     MOVF POSTDEC1, F, ACCESS
239A  52E5     MOVF POSTDEC1, F, ACCESS
19:                while(BusyXLCD());
239C  EC7C     CALL 0x30F8, 0
239E  F018     NOP
23A0  0900     IORLW 0x0
23A2  E1FC     BNZ 0x239C
20:                SetDDRamAddr(0x09); 
23A4  0E09     MOVLW 0x9
23A6  6EE6     MOVWF POSTINC1, ACCESS
23A8  EC7B     CALL 0x2CF6, 0
23AA  F016     NOP
23AC  52E5     MOVF POSTDEC1, F, ACCESS
21:                putsXLCD(heartRateOutput1);
23AE  0E52     MOVLW 0x52
23B0  6EE6     MOVWF POSTINC1, ACCESS
23B2  0E04     MOVLW 0x4
23B4  6EE6     MOVWF POSTINC1, ACCESS
23B6  EC3C     CALL 0x2E78, 0
23B8  F017     NOP
23BA  52E5     MOVF POSTDEC1, F, ACCESS
23BC  52E5     MOVF POSTDEC1, F, ACCESS
22:                while(BusyXLCD());
23BE  EC7C     CALL 0x30F8, 0
23C0  F018     NOP
23C2  0900     IORLW 0x0
23C4  E1FC     BNZ 0x23BE
23:                SetDDRamAddr(0x0C);
23C6  0E0C     MOVLW 0xC
23C8  6EE6     MOVWF POSTINC1, ACCESS
23CA  EC7B     CALL 0x2CF6, 0
23CC  F016     NOP
23CE  52E5     MOVF POSTDEC1, F, ACCESS
24:                putrsXLCD(" bpm");
23D0  0EF7     MOVLW 0xF7
23D2  6EE6     MOVWF POSTINC1, ACCESS
23D4  0E29     MOVLW 0x29
23D6  6EE6     MOVWF POSTINC1, ACCESS
23D8  ECC9     CALL 0x2D92, 0
23DA  F016     NOP
23DC  52E5     MOVF POSTDEC1, F, ACCESS
23DE  52E5     MOVF POSTDEC1, F, ACCESS
25:                while(BusyXLCD());
23E0  EC7C     CALL 0x30F8, 0
23E2  F018     NOP
23E4  0900     IORLW 0x0
23E6  E1FC     BNZ 0x23E0
26:            }
23E8  0012     RETURN 0
27:            
28:            void HRV()
29:            {
30:                itoa(pNN50, hrv_Output1);       
23EA  0E50     MOVLW 0x50
23EC  6EE6     MOVWF POSTINC1, ACCESS
23EE  0E04     MOVLW 0x4
23F0  6EE6     MOVWF POSTINC1, ACCESS
23F2  C41F     MOVFF pNN50, size
23F4  F007     NOP
23F6  C420     MOVFF 0x420, count
23F8  F008     NOP
23FA  C421     MOVFF 0x421, cval
23FC  F009     NOP
23FE  C422     MOVFF 0x422, larg
2400  F00A     NOP
2402  EC58     CALL 0x16B0, 0
2404  F00B     NOP
2406  C008     MOVFF count, __tmp_0
2408  F014     NOP
240A  C009     MOVFF cval, digit_cnt
240C  F015     NOP
240E  C008     MOVFF count, POSTINC1
2410  FFE6     NOP
2412  C009     MOVFF cval, POSTINC1
2414  FFE6     NOP
2416  EC7D     CALL 0x24FA, 0
2418  F012     NOP
241A  52E5     MOVF POSTDEC1, F, ACCESS
241C  52E5     MOVF POSTDEC1, F, ACCESS
241E  52E5     MOVF POSTDEC1, F, ACCESS
2420  52E5     MOVF POSTDEC1, F, ACCESS
31:                SetDDRamAddr(0x40);
2422  0E40     MOVLW 0x40
2424  6EE6     MOVWF POSTINC1, ACCESS
2426  EC7B     CALL 0x2CF6, 0
2428  F016     NOP
242A  52E5     MOVF POSTDEC1, F, ACCESS
32:                while(BusyXLCD());
242C  EC7C     CALL 0x30F8, 0
242E  F018     NOP
2430  0900     IORLW 0x0
2432  E1FC     BNZ 0x242C
33:                putrsXLCD("HRV:         ");
2434  0EE9     MOVLW 0xE9
2436  6EE6     MOVWF POSTINC1, ACCESS
2438  0E29     MOVLW 0x29
243A  6EE6     MOVWF POSTINC1, ACCESS
243C  ECC9     CALL 0x2D92, 0
243E  F016     NOP
2440  52E5     MOVF POSTDEC1, F, ACCESS
2442  52E5     MOVF POSTDEC1, F, ACCESS
34:                while(BusyXLCD());
2444  EC7C     CALL 0x30F8, 0
2446  F018     NOP
2448  0900     IORLW 0x0
244A  E1FC     BNZ 0x2444
35:                SetDDRamAddr(0x4B); 
244C  0E4B     MOVLW 0x4B
244E  6EE6     MOVWF POSTINC1, ACCESS
2450  EC7B     CALL 0x2CF6, 0
2452  F016     NOP
2454  52E5     MOVF POSTDEC1, F, ACCESS
36:                putsXLCD(hrv_Output1);
2456  0E50     MOVLW 0x50
2458  6EE6     MOVWF POSTINC1, ACCESS
245A  0E04     MOVLW 0x4
245C  6EE6     MOVWF POSTINC1, ACCESS
245E  EC3C     CALL 0x2E78, 0
2460  F017     NOP
2462  52E5     MOVF POSTDEC1, F, ACCESS
2464  52E5     MOVF POSTDEC1, F, ACCESS
37:                while(BusyXLCD());
2466  EC7C     CALL 0x30F8, 0
2468  F018     NOP
246A  0900     IORLW 0x0
246C  E1FC     BNZ 0x2466
38:                SetDDRamAddr(0x4E);
246E  0E4E     MOVLW 0x4E
2470  6EE6     MOVWF POSTINC1, ACCESS
2472  EC7B     CALL 0x2CF6, 0
2474  F016     NOP
2476  52E5     MOVF POSTDEC1, F, ACCESS
39:                putrsXLCD(" %");
2478  0EE6     MOVLW 0xE6
247A  6EE6     MOVWF POSTINC1, ACCESS
247C  0E29     MOVLW 0x29
247E  6EE6     MOVWF POSTINC1, ACCESS
2480  ECC9     CALL 0x2D92, 0
2482  F016     NOP
2484  52E5     MOVF POSTDEC1, F, ACCESS
2486  52E5     MOVF POSTDEC1, F, ACCESS
40:                while(BusyXLCD());
2488  EC7C     CALL 0x30F8, 0
248A  F018     NOP
248C  0900     IORLW 0x0
248E  E1FC     BNZ 0x2488
41:            }
2490  0012     RETURN 0
42:            
43:            void Glucose()
44:            {
45:               SetDDRamAddr(0x10);
2492  0E10     MOVLW 0x10
2494  6EE6     MOVWF POSTINC1, ACCESS
2496  EC7B     CALL 0x2CF6, 0
2498  F016     NOP
249A  52E5     MOVF POSTDEC1, F, ACCESS
46:                putrsXLCD("Gluc:           ");
249C  0ED5     MOVLW 0xD5
249E  6EE6     MOVWF POSTINC1, ACCESS
24A0  0E29     MOVLW 0x29
24A2  6EE6     MOVWF POSTINC1, ACCESS
24A4  ECC9     CALL 0x2D92, 0
24A6  F016     NOP
24A8  52E5     MOVF POSTDEC1, F, ACCESS
24AA  52E5     MOVF POSTDEC1, F, ACCESS
47:                while(BusyXLCD());
24AC  EC7C     CALL 0x30F8, 0
24AE  F018     NOP
24B0  0900     IORLW 0x0
24B2  E1FC     BNZ 0x24AC
48:                SetDDRamAddr(0x17); 
24B4  0E17     MOVLW 0x17
24B6  6EE6     MOVWF POSTINC1, ACCESS
24B8  EC7B     CALL 0x2CF6, 0
24BA  F016     NOP
24BC  52E5     MOVF POSTDEC1, F, ACCESS
49:                putrsXLCD("85");
24BE  0ED2     MOVLW 0xD2
24C0  6EE6     MOVWF POSTINC1, ACCESS
24C2  0E29     MOVLW 0x29
24C4  6EE6     MOVWF POSTINC1, ACCESS
24C6  ECC9     CALL 0x2D92, 0
24C8  F016     NOP
24CA  52E5     MOVF POSTDEC1, F, ACCESS
24CC  52E5     MOVF POSTDEC1, F, ACCESS
50:                while(BusyXLCD());
24CE  EC7C     CALL 0x30F8, 0
24D0  F018     NOP
24D2  0900     IORLW 0x0
24D4  E1FC     BNZ 0x24CE
51:                SetDDRamAddr(0x1A);
24D6  0E1A     MOVLW 0x1A
24D8  6EE6     MOVWF POSTINC1, ACCESS
24DA  EC7B     CALL 0x2CF6, 0
24DC  F016     NOP
24DE  52E5     MOVF POSTDEC1, F, ACCESS
52:                putrsXLCD(" mg/dL");
24E0  0ECB     MOVLW 0xCB
24E2  6EE6     MOVWF POSTINC1, ACCESS
24E4  0E29     MOVLW 0x29
24E6  6EE6     MOVWF POSTINC1, ACCESS
24E8  ECC9     CALL 0x2D92, 0
24EA  F016     NOP
24EC  52E5     MOVF POSTDEC1, F, ACCESS
24EE  52E5     MOVF POSTDEC1, F, ACCESS
53:                while(BusyXLCD());
24F0  EC7C     CALL 0x30F8, 0
24F2  F018     NOP
24F4  0900     IORLW 0x0
24F6  E1FC     BNZ 0x24F0
54:            }
24F8  0012     RETURN 0
---  C:/MPLabXProjects/Group_Project/ecng3006-project/Menu/HRV.c  ---------------------------------------
1:             #include <p18f452.h>
2:             #include "xlcd.h"
3:             #include <delays.h>
4:             #include <timers.h>
5:             #include <stdlib.h>
6:             #include <string.h>
7:             #include <capture.h>
8:             #include "xlcd.h"
9:             
10:            int timer1Period = 0;
11:            long double HRVvar1 = 0;
12:            long double HRVvar2 = 0;
13:            long double HRVvar3 = 0;
14:            long double hrvInterval1 = 0;
15:            long double hrvInterval2 = 0;
16:            long double numNNInterval =0;
17:            long double numNN50 = 0;
18:            long double pNN50 = 0;
19:            
20:            char hrv_Output[2];
21:            
22:            void timer1Setup(){
23:                //Timer 1 Setup
24:                OpenTimer1(TIMER_INT_ON & 
25:                    T1_16BIT_RW & T1_SOURCE_INT &
26:                    T1_PS_1_8 & T1_SOURCE_CCP);
0C72  0EB5     MOVLW 0xB5
0C74  6EE6     MOVWF POSTINC1, ACCESS
0C76  ECEC     CALL 0x2FD8, 0
0C78  F017     NOP
0C7A  52E5     MOVF POSTDEC1, F, ACCESS
27:                IPR1bits.TMR1IP = 0;        //Set TMR1 interrupt LOW priority 
0C7C  909F     BCF IPR1, 0, ACCESS
28:                PIE1bits.TMR1IE = 1;        //Enable TMR1 interrupt
0C7E  809D     BSF PIE1, 0, ACCESS
29:                PIR2bits.CCP2IF = 0;        //Set the capture to 0
0C80  90A1     BCF PIR2, 0, ACCESS
30:                IPR2bits.CCP2IP = 1;        //Set capture to high priority
0C82  80A2     BSF IPR2, 0, ACCESS
31:                WriteTimer1(0x0BDC);        //Write TMR1 to start for 0.5s
0C84  0EDC     MOVLW 0xDC
0C86  6EE6     MOVWF POSTINC1, ACCESS
0C88  0E0B     MOVLW 0xB
0C8A  6EE6     MOVWF POSTINC1, ACCESS
0C8C  EC0D     CALL 0x301A, 0
0C8E  F018     NOP
0C90  52E5     MOVF POSTDEC1, F, ACCESS
0C92  52E5     MOVF POSTDEC1, F, ACCESS
32:            }
0C94  0012     RETURN 0
33:            
34:            void captureSetup(){
35:                //Timer 1 Setup for counting time between NN intervals and CCP2
36:                TRISCbits.CCP2 = 1;         //Set CCP2 as an input
0C96  8294     BSF TRISC, 1, ACCESS
37:                OpenCapture2(               //Configure to Capture every rising edge
38:                    CAPTURE_INT_ON & 
39:                    C2_EVERY_RISE_EDGE);     
0C98  0E85     MOVLW 0x85
0C9A  6EE6     MOVWF POSTINC1, ACCESS
0C9C  EC4C     CALL 0x2C98, 0
0C9E  F016     NOP
0CA0  52E5     MOVF POSTDEC1, F, ACCESS
40:            }
0CA2  0012     RETURN 0
41:            
42:            //Adapted Code from Aasif Edoo 2018
43:            /***************************************************************************************
44:            *    Title: pulseCounter.c; Function Name: pulseCounter_ccpInt
45:            *    Author: Aasif Edoo
46:            *    Date: 28/11/18
47:            *    Code version: 1.0
48:            *
49:            ***************************************************************************************/
50:            
51:            void HRVcal()
52:            {    
53:                    if(HRVvar1 == 0 && HRVvar2 == 0 && HRVvar3 ==0){
0CA4  6A0C     CLRF 0xC, ACCESS
0CA6  6A0D     CLRF 0xD, ACCESS
0CA8  6A0E     CLRF romstring, ACCESS
0CAA  6A0F     CLRF 0xF, ACCESS
0CAC  C403     MOVFF HRVvar1, size
0CAE  F007     NOP
0CB0  C404     MOVFF 0x404, count
0CB2  F008     NOP
0CB4  C405     MOVFF 0x405, cval
0CB6  F009     NOP
0CB8  C406     MOVFF 0x406, larg
0CBA  F00A     NOP
0CBC  ECBE     CALL 0x177C, 0
0CBE  F00B     NOP
0CC0  0A01     XORLW 0x1
0CC2  E15D     BNZ 0xD7E
0CC4  6A0C     CLRF 0xC, ACCESS
0CC6  6A0D     CLRF 0xD, ACCESS
0CC8  6A0E     CLRF romstring, ACCESS
0CCA  6A0F     CLRF 0xF, ACCESS
0CCC  C407     MOVFF HRVvar2, size
0CCE  F007     NOP
0CD0  C408     MOVFF 0x408, count
0CD2  F008     NOP
0CD4  C409     MOVFF 0x409, cval
0CD6  F009     NOP
0CD8  C40A     MOVFF 0x40A, larg
0CDA  F00A     NOP
0CDC  ECBE     CALL 0x177C, 0
0CDE  F00B     NOP
0CE0  0A01     XORLW 0x1
0CE2  E14D     BNZ 0xD7E
0CE4  6A0C     CLRF 0xC, ACCESS
0CE6  6A0D     CLRF 0xD, ACCESS
0CE8  6A0E     CLRF romstring, ACCESS
0CEA  6A0F     CLRF 0xF, ACCESS
0CEC  C40B     MOVFF HRVvar3, size
0CEE  F007     NOP
0CF0  C40C     MOVFF 0x40C, count
0CF2  F008     NOP
0CF4  C40D     MOVFF 0x40D, cval
0CF6  F009     NOP
0CF8  C40E     MOVFF 0x40E, larg
0CFA  F00A     NOP
0CFC  ECBE     CALL 0x177C, 0
0CFE  F00B     NOP
0D00  0A01     XORLW 0x1
0D02  E13D     BNZ 0xD7E
54:                        HRVvar1 = ReadCapture2(); 
0D04  EC85     CALL 0x2F0A, 0
0D06  F017     NOP
0D08  CFF3     MOVFF PROD, __tmp_0
0D0A  F014     NOP
0D0C  CFF4     MOVFF PRODH, digit_cnt
0D0E  F015     NOP
0D10  CFF3     MOVFF PROD, count
0D12  F008     NOP
0D14  CFF4     MOVFF PRODH, cval
0D16  F009     NOP
0D18  EC7E     CALL 0x12FC, 0
0D1A  F009     NOP
0D1C  C007     MOVFF size, HRVvar1
0D1E  F403     NOP
0D20  C008     MOVFF count, 0x404
0D22  F404     NOP
0D24  C009     MOVFF cval, 0x405
0D26  F405     NOP
0D28  C00A     MOVFF larg, 0x406
0D2A  F406     NOP
55:                        HRVvar1 = HRVvar1*timer1Period;
0D2C  C401     MOVFF timer1Period, count
0D2E  F008     NOP
0D30  C402     MOVFF 0x402, cval
0D32  F009     NOP
0D34  EC80     CALL 0x1300, 0
0D36  F009     NOP
0D38  C007     MOVFF size, __tmp_0
0D3A  F014     NOP
0D3C  C008     MOVFF count, digit_cnt
0D3E  F015     NOP
0D40  C009     MOVFF cval, prefix_cnt
0D42  F016     NOP
0D44  C00A     MOVFF larg, sign_char
0D46  F017     NOP
0D48  C007     MOVFF size, 0xC
0D4A  F00C     NOP
0D4C  C008     MOVFF count, 0xD
0D4E  F00D     NOP
0D50  C009     MOVFF cval, romstring
0D52  F00E     NOP
0D54  C00A     MOVFF larg, 0xF
0D56  F00F     NOP
0D58  C403     MOVFF HRVvar1, size
0D5A  F007     NOP
0D5C  C404     MOVFF 0x404, count
0D5E  F008     NOP
0D60  C405     MOVFF 0x405, cval
0D62  F009     NOP
0D64  C406     MOVFF 0x406, larg
0D66  F00A     NOP
0D68  EC98     CALL 0x1530, 0
0D6A  F00A     NOP
0D6C  C007     MOVFF size, HRVvar1
0D6E  F403     NOP
0D70  C008     MOVFF count, 0x404
0D72  F404     NOP
0D74  C009     MOVFF cval, 0x405
0D76  F405     NOP
0D78  C00A     MOVFF larg, 0x406
0D7A  F406     NOP
56:                    }
57:                    else if(HRVvar1 != 0 && HRVvar2 == 0 && HRVvar3 == 0){
0D7C  0012     RETURN 0
0D7E  6A0C     CLRF 0xC, ACCESS
0D80  6A0D     CLRF 0xD, ACCESS
0D82  6A0E     CLRF romstring, ACCESS
0D84  6A0F     CLRF 0xF, ACCESS
0D86  C403     MOVFF HRVvar1, size
0D88  F007     NOP
0D8A  C404     MOVFF 0x404, count
0D8C  F008     NOP
0D8E  C405     MOVFF 0x405, cval
0D90  F009     NOP
0D92  C406     MOVFF 0x406, larg
0D94  F00A     NOP
0D96  ECBE     CALL 0x177C, 0
0D98  F00B     NOP
0D9A  0A01     XORLW 0x1
0D9C  E101     BNZ 0xDA0
0D9E  D0CB     BRA 0xF36
0DA0  6A0C     CLRF 0xC, ACCESS
0DA2  6A0D     CLRF 0xD, ACCESS
0DA4  6A0E     CLRF romstring, ACCESS
0DA6  6A0F     CLRF 0xF, ACCESS
0DA8  C407     MOVFF HRVvar2, size
0DAA  F007     NOP
0DAC  C408     MOVFF 0x408, count
0DAE  F008     NOP
0DB0  C409     MOVFF 0x409, cval
0DB2  F009     NOP
0DB4  C40A     MOVFF 0x40A, larg
0DB6  F00A     NOP
0DB8  ECBE     CALL 0x177C, 0
0DBA  F00B     NOP
0DBC  0A01     XORLW 0x1
0DBE  E001     BZ 0xDC2
0DC0  D0BA     BRA 0xF36
0DC2  6A0C     CLRF 0xC, ACCESS
0DC4  6A0D     CLRF 0xD, ACCESS
0DC6  6A0E     CLRF romstring, ACCESS
0DC8  6A0F     CLRF 0xF, ACCESS
0DCA  C40B     MOVFF HRVvar3, size
0DCC  F007     NOP
0DCE  C40C     MOVFF 0x40C, count
0DD0  F008     NOP
0DD2  C40D     MOVFF 0x40D, cval
0DD4  F009     NOP
0DD6  C40E     MOVFF 0x40E, larg
0DD8  F00A     NOP
0DDA  ECBE     CALL 0x177C, 0
0DDC  F00B     NOP
0DDE  0A01     XORLW 0x1
0DE0  E001     BZ 0xDE4
0DE2  D0A9     BRA 0xF36
58:                        HRVvar2 = ReadCapture2();
0DE4  EC85     CALL 0x2F0A, 0
0DE6  F017     NOP
0DE8  CFF3     MOVFF PROD, __tmp_0
0DEA  F014     NOP
0DEC  CFF4     MOVFF PRODH, digit_cnt
0DEE  F015     NOP
0DF0  CFF3     MOVFF PROD, count
0DF2  F008     NOP
0DF4  CFF4     MOVFF PRODH, cval
0DF6  F009     NOP
0DF8  EC7E     CALL 0x12FC, 0
0DFA  F009     NOP
0DFC  C007     MOVFF size, HRVvar2
0DFE  F407     NOP
0E00  C008     MOVFF count, 0x408
0E02  F408     NOP
0E04  C009     MOVFF cval, 0x409
0E06  F409     NOP
0E08  C00A     MOVFF larg, 0x40A
0E0A  F40A     NOP
59:                        HRVvar2 = HRVvar2 *timer1Period;
0E0C  C401     MOVFF timer1Period, count
0E0E  F008     NOP
0E10  C402     MOVFF 0x402, cval
0E12  F009     NOP
0E14  EC80     CALL 0x1300, 0
0E16  F009     NOP
0E18  C007     MOVFF size, __tmp_0
0E1A  F014     NOP
0E1C  C008     MOVFF count, digit_cnt
0E1E  F015     NOP
0E20  C009     MOVFF cval, prefix_cnt
0E22  F016     NOP
0E24  C00A     MOVFF larg, sign_char
0E26  F017     NOP
0E28  C007     MOVFF size, 0xC
0E2A  F00C     NOP
0E2C  C008     MOVFF count, 0xD
0E2E  F00D     NOP
0E30  C009     MOVFF cval, romstring
0E32  F00E     NOP
0E34  C00A     MOVFF larg, 0xF
0E36  F00F     NOP
0E38  C407     MOVFF HRVvar2, size
0E3A  F007     NOP
0E3C  C408     MOVFF 0x408, count
0E3E  F008     NOP
0E40  C409     MOVFF 0x409, cval
0E42  F009     NOP
0E44  C40A     MOVFF 0x40A, larg
0E46  F00A     NOP
0E48  EC98     CALL 0x1530, 0
0E4A  F00A     NOP
0E4C  C007     MOVFF size, HRVvar2
0E4E  F407     NOP
0E50  C008     MOVFF count, 0x408
0E52  F408     NOP
0E54  C009     MOVFF cval, 0x409
0E56  F409     NOP
0E58  C00A     MOVFF larg, 0x40A
0E5A  F40A     NOP
60:                        if(HRVvar2 < HRVvar1){
0E5C  C403     MOVFF HRVvar1, 0xC
0E5E  F00C     NOP
0E60  C404     MOVFF 0x404, 0xD
0E62  F00D     NOP
0E64  C405     MOVFF 0x405, romstring
0E66  F00E     NOP
0E68  C406     MOVFF 0x406, 0xF
0E6A  F00F     NOP
0E6C  ECCE     CALL 0x179C, 0
0E6E  F00B     NOP
0E70  0A01     XORLW 0x1
0E72  E11A     BNZ 0xEA8
61:                            hrvInterval1 = HRVvar1 - HRVvar2;
0E74  C407     MOVFF HRVvar2, 0xC
0E76  F00C     NOP
0E78  C408     MOVFF 0x408, 0xD
0E7A  F00D     NOP
0E7C  C409     MOVFF 0x409, romstring
0E7E  F00E     NOP
0E80  C40A     MOVFF 0x40A, 0xF
0E82  F00F     NOP
0E84  C403     MOVFF HRVvar1, size
0E86  F007     NOP
0E88  C404     MOVFF 0x404, count
0E8A  F008     NOP
0E8C  C405     MOVFF 0x405, cval
0E8E  F009     NOP
0E90  C406     MOVFF 0x406, larg
0E92  F00A     NOP
0E94  ECAE     CALL 0x135C, 0
0E96  F009     NOP
0E98  C007     MOVFF size, hrvInterval1
0E9A  F40F     NOP
0E9C  C008     MOVFF count, 0x410
0E9E  F410     NOP
0EA0  C009     MOVFF cval, 0x411
0EA2  F411     NOP
0EA4  C00A     MOVFF larg, 0x412
0EA6  F412     NOP
62:                        }
63:                        if(HRVvar1 < HRVvar2){
0EA8  C407     MOVFF HRVvar2, 0xC
0EAA  F00C     NOP
0EAC  C408     MOVFF 0x408, 0xD
0EAE  F00D     NOP
0EB0  C409     MOVFF 0x409, romstring
0EB2  F00E     NOP
0EB4  C40A     MOVFF 0x40A, 0xF
0EB6  F00F     NOP
0EB8  C403     MOVFF HRVvar1, size
0EBA  F007     NOP
0EBC  C404     MOVFF 0x404, count
0EBE  F008     NOP
0EC0  C405     MOVFF 0x405, cval
0EC2  F009     NOP
0EC4  C406     MOVFF 0x406, larg
0EC6  F00A     NOP
0EC8  ECCE     CALL 0x179C, 0
0ECA  F00B     NOP
0ECC  0A01     XORLW 0x1
0ECE  E11A     BNZ 0xF04
64:                            hrvInterval1 = HRVvar2 - HRVvar1; 
0ED0  C403     MOVFF HRVvar1, 0xC
0ED2  F00C     NOP
0ED4  C404     MOVFF 0x404, 0xD
0ED6  F00D     NOP
0ED8  C405     MOVFF 0x405, romstring
0EDA  F00E     NOP
0EDC  C406     MOVFF 0x406, 0xF
0EDE  F00F     NOP
0EE0  C407     MOVFF HRVvar2, size
0EE2  F007     NOP
0EE4  C408     MOVFF 0x408, count
0EE6  F008     NOP
0EE8  C409     MOVFF 0x409, cval
0EEA  F009     NOP
0EEC  C40A     MOVFF 0x40A, larg
0EEE  F00A     NOP
0EF0  ECAE     CALL 0x135C, 0
0EF2  F009     NOP
0EF4  C007     MOVFF size, hrvInterval1
0EF6  F40F     NOP
0EF8  C008     MOVFF count, 0x410
0EFA  F410     NOP
0EFC  C009     MOVFF cval, 0x411
0EFE  F411     NOP
0F00  C00A     MOVFF larg, 0x412
0F02  F412     NOP
65:                        }            
66:                        numNNInterval = numNNInterval + 1.0;           
0F04  6A0C     CLRF 0xC, ACCESS
0F06  6A0D     CLRF 0xD, ACCESS
0F08  0E80     MOVLW 0x80
0F0A  6E0E     MOVWF romstring, ACCESS
0F0C  0E3F     MOVLW 0x3F
0F0E  6E0F     MOVWF 0xF, ACCESS
0F10  C417     MOVFF numNNInterval, size
0F12  F007     NOP
0F14  C418     MOVFF 0x418, count
0F16  F008     NOP
0F18  C419     MOVFF 0x419, cval
0F1A  F009     NOP
0F1C  C41A     MOVFF 0x41A, larg
0F1E  F00A     NOP
0F20  ECAF     CALL 0x135E, 0
0F22  F009     NOP
0F24  C007     MOVFF size, numNNInterval
0F26  F417     NOP
0F28  C008     MOVFF count, 0x418
0F2A  F418     NOP
0F2C  C009     MOVFF cval, 0x419
0F2E  F419     NOP
0F30  C00A     MOVFF larg, 0x41A
0F32  F41A     NOP
67:                    }
68:                    else if(HRVvar1 != 0 && HRVvar2 != 0 && HRVvar3 == 0){
0F34  0012     RETURN 0
0F36  6A0C     CLRF 0xC, ACCESS
0F38  6A0D     CLRF 0xD, ACCESS
0F3A  6A0E     CLRF romstring, ACCESS
0F3C  6A0F     CLRF 0xF, ACCESS
0F3E  C403     MOVFF HRVvar1, size
0F40  F007     NOP
0F42  C404     MOVFF 0x404, count
0F44  F008     NOP
0F46  C405     MOVFF 0x405, cval
0F48  F009     NOP
0F4A  C406     MOVFF 0x406, larg
0F4C  F00A     NOP
0F4E  ECBE     CALL 0x177C, 0
0F50  F00B     NOP
0F52  0A01     XORLW 0x1
0F54  E101     BNZ 0xF58
0F56  D176     BRA 0x1244
0F58  6A0C     CLRF 0xC, ACCESS
0F5A  6A0D     CLRF 0xD, ACCESS
0F5C  6A0E     CLRF romstring, ACCESS
0F5E  6A0F     CLRF 0xF, ACCESS
0F60  C407     MOVFF HRVvar2, size
0F62  F007     NOP
0F64  C408     MOVFF 0x408, count
0F66  F008     NOP
0F68  C409     MOVFF 0x409, cval
0F6A  F009     NOP
0F6C  C40A     MOVFF 0x40A, larg
0F6E  F00A     NOP
0F70  ECBE     CALL 0x177C, 0
0F72  F00B     NOP
0F74  0A01     XORLW 0x1
0F76  E101     BNZ 0xF7A
0F78  D165     BRA 0x1244
0F7A  6A0C     CLRF 0xC, ACCESS
0F7C  6A0D     CLRF 0xD, ACCESS
0F7E  6A0E     CLRF romstring, ACCESS
0F80  6A0F     CLRF 0xF, ACCESS
0F82  C40B     MOVFF HRVvar3, size
0F84  F007     NOP
0F86  C40C     MOVFF 0x40C, count
0F88  F008     NOP
0F8A  C40D     MOVFF 0x40D, cval
0F8C  F009     NOP
0F8E  C40E     MOVFF 0x40E, larg
0F90  F00A     NOP
0F92  ECBE     CALL 0x177C, 0
0F94  F00B     NOP
0F96  0A01     XORLW 0x1
0F98  E001     BZ 0xF9C
0F9A  D154     BRA 0x1244
69:                        HRVvar3 = ReadCapture2();
0F9C  EC85     CALL 0x2F0A, 0
0F9E  F017     NOP
0FA0  CFF3     MOVFF PROD, __tmp_0
0FA2  F014     NOP
0FA4  CFF4     MOVFF PRODH, digit_cnt
0FA6  F015     NOP
0FA8  CFF3     MOVFF PROD, count
0FAA  F008     NOP
0FAC  CFF4     MOVFF PRODH, cval
0FAE  F009     NOP
0FB0  EC7E     CALL 0x12FC, 0
0FB2  F009     NOP
0FB4  C007     MOVFF size, HRVvar3
0FB6  F40B     NOP
0FB8  C008     MOVFF count, 0x40C
0FBA  F40C     NOP
0FBC  C009     MOVFF cval, 0x40D
0FBE  F40D     NOP
0FC0  C00A     MOVFF larg, 0x40E
0FC2  F40E     NOP
70:                        HRVvar3 = HRVvar3*timer1Period;
0FC4  C401     MOVFF timer1Period, count
0FC6  F008     NOP
0FC8  C402     MOVFF 0x402, cval
0FCA  F009     NOP
0FCC  EC80     CALL 0x1300, 0
0FCE  F009     NOP
0FD0  C007     MOVFF size, __tmp_0
0FD2  F014     NOP
0FD4  C008     MOVFF count, digit_cnt
0FD6  F015     NOP
0FD8  C009     MOVFF cval, prefix_cnt
0FDA  F016     NOP
0FDC  C00A     MOVFF larg, sign_char
0FDE  F017     NOP
0FE0  C007     MOVFF size, 0xC
0FE2  F00C     NOP
0FE4  C008     MOVFF count, 0xD
0FE6  F00D     NOP
0FE8  C009     MOVFF cval, romstring
0FEA  F00E     NOP
0FEC  C00A     MOVFF larg, 0xF
0FEE  F00F     NOP
0FF0  C40B     MOVFF HRVvar3, size
0FF2  F007     NOP
0FF4  C40C     MOVFF 0x40C, count
0FF6  F008     NOP
0FF8  C40D     MOVFF 0x40D, cval
0FFA  F009     NOP
0FFC  C40E     MOVFF 0x40E, larg
0FFE  F00A     NOP
1000  EC98     CALL 0x1530, 0
1002  F00A     NOP
1004  C007     MOVFF size, HRVvar3
1006  F40B     NOP
1008  C008     MOVFF count, 0x40C
100A  F40C     NOP
100C  C009     MOVFF cval, 0x40D
100E  F40D     NOP
1010  C00A     MOVFF larg, 0x40E
1012  F40E     NOP
71:                        if(HRVvar3 < HRVvar2){
1014  C407     MOVFF HRVvar2, 0xC
1016  F00C     NOP
1018  C408     MOVFF 0x408, 0xD
101A  F00D     NOP
101C  C409     MOVFF 0x409, romstring
101E  F00E     NOP
1020  C40A     MOVFF 0x40A, 0xF
1022  F00F     NOP
1024  ECCE     CALL 0x179C, 0
1026  F00B     NOP
1028  0A01     XORLW 0x1
102A  E11A     BNZ 0x1060
72:                            hrvInterval2 = HRVvar2 - HRVvar3;
102C  C40B     MOVFF HRVvar3, 0xC
102E  F00C     NOP
1030  C40C     MOVFF 0x40C, 0xD
1032  F00D     NOP
1034  C40D     MOVFF 0x40D, romstring
1036  F00E     NOP
1038  C40E     MOVFF 0x40E, 0xF
103A  F00F     NOP
103C  C407     MOVFF HRVvar2, size
103E  F007     NOP
1040  C408     MOVFF 0x408, count
1042  F008     NOP
1044  C409     MOVFF 0x409, cval
1046  F009     NOP
1048  C40A     MOVFF 0x40A, larg
104A  F00A     NOP
104C  ECAE     CALL 0x135C, 0
104E  F009     NOP
1050  C007     MOVFF size, hrvInterval2
1052  F413     NOP
1054  C008     MOVFF count, 0x414
1056  F414     NOP
1058  C009     MOVFF cval, 0x415
105A  F415     NOP
105C  C00A     MOVFF larg, 0x416
105E  F416     NOP
73:                        }
74:                        if(HRVvar2 < HRVvar3){
1060  C40B     MOVFF HRVvar3, 0xC
1062  F00C     NOP
1064  C40C     MOVFF 0x40C, 0xD
1066  F00D     NOP
1068  C40D     MOVFF 0x40D, romstring
106A  F00E     NOP
106C  C40E     MOVFF 0x40E, 0xF
106E  F00F     NOP
1070  C407     MOVFF HRVvar2, size
1072  F007     NOP
1074  C408     MOVFF 0x408, count
1076  F008     NOP
1078  C409     MOVFF 0x409, cval
107A  F009     NOP
107C  C40A     MOVFF 0x40A, larg
107E  F00A     NOP
1080  ECCE     CALL 0x179C, 0
1082  F00B     NOP
1084  0A01     XORLW 0x1
1086  E11A     BNZ 0x10BC
75:                            hrvInterval2 = HRVvar3 - HRVvar2; 
1088  C407     MOVFF HRVvar2, 0xC
108A  F00C     NOP
108C  C408     MOVFF 0x408, 0xD
108E  F00D     NOP
1090  C409     MOVFF 0x409, romstring
1092  F00E     NOP
1094  C40A     MOVFF 0x40A, 0xF
1096  F00F     NOP
1098  C40B     MOVFF HRVvar3, size
109A  F007     NOP
109C  C40C     MOVFF 0x40C, count
109E  F008     NOP
10A0  C40D     MOVFF 0x40D, cval
10A2  F009     NOP
10A4  C40E     MOVFF 0x40E, larg
10A6  F00A     NOP
10A8  ECAE     CALL 0x135C, 0
10AA  F009     NOP
10AC  C007     MOVFF size, hrvInterval2
10AE  F413     NOP
10B0  C008     MOVFF count, 0x414
10B2  F414     NOP
10B4  C009     MOVFF cval, 0x415
10B6  F415     NOP
10B8  C00A     MOVFF larg, 0x416
10BA  F416     NOP
76:                        }
77:                        numNNInterval = (long) numNNInterval+ 1.0;            
10BC  C417     MOVFF numNNInterval, size
10BE  F007     NOP
10C0  C418     MOVFF 0x418, count
10C2  F008     NOP
10C4  C419     MOVFF 0x419, cval
10C6  F009     NOP
10C8  C41A     MOVFF 0x41A, larg
10CA  F00A     NOP
10CC  EC87     CALL 0x170E, 0
10CE  F00B     NOP
10D0  EC95     CALL 0x132A, 0
10D2  F009     NOP
10D4  C007     MOVFF size, __tmp_0
10D6  F014     NOP
10D8  C008     MOVFF count, digit_cnt
10DA  F015     NOP
10DC  C009     MOVFF cval, prefix_cnt
10DE  F016     NOP
10E0  C00A     MOVFF larg, sign_char
10E2  F017     NOP
10E4  6A0C     CLRF 0xC, ACCESS
10E6  6A0D     CLRF 0xD, ACCESS
10E8  0E80     MOVLW 0x80
10EA  6E0E     MOVWF romstring, ACCESS
10EC  0E3F     MOVLW 0x3F
10EE  6E0F     MOVWF 0xF, ACCESS
10F0  ECAF     CALL 0x135E, 0
10F2  F009     NOP
10F4  C007     MOVFF size, numNNInterval
10F6  F417     NOP
10F8  C008     MOVFF count, 0x418
10FA  F418     NOP
10FC  C009     MOVFF cval, 0x419
10FE  F419     NOP
1100  C00A     MOVFF larg, 0x41A
1102  F41A     NOP
78:                       if(hrvInterval2 < hrvInterval1 ){
1104  C40F     MOVFF hrvInterval1, 0xC
1106  F00C     NOP
1108  C410     MOVFF 0x410, 0xD
110A  F00D     NOP
110C  C411     MOVFF 0x411, romstring
110E  F00E     NOP
1110  C412     MOVFF 0x412, 0xF
1112  F00F     NOP
1114  C413     MOVFF hrvInterval2, size
1116  F007     NOP
1118  C414     MOVFF 0x414, count
111A  F008     NOP
111C  C415     MOVFF 0x415, cval
111E  F009     NOP
1120  C416     MOVFF 0x416, larg
1122  F00A     NOP
1124  ECCE     CALL 0x179C, 0
1126  F00B     NOP
1128  0A01     XORLW 0x1
112A  E126     BNZ 0x1178
79:                            if(hrvInterval1 - hrvInterval2 > 50000){ numNN50++; }
112C  C413     MOVFF hrvInterval2, 0xC
112E  F00C     NOP
1130  C414     MOVFF 0x414, 0xD
1132  F00D     NOP
1134  C415     MOVFF 0x415, romstring
1136  F00E     NOP
1138  C416     MOVFF 0x416, 0xF
113A  F00F     NOP
113C  C40F     MOVFF hrvInterval1, size
113E  F007     NOP
1140  C410     MOVFF 0x410, count
1142  F008     NOP
1144  C411     MOVFF 0x411, cval
1146  F009     NOP
1148  C412     MOVFF 0x412, larg
114A  F00A     NOP
114C  ECAE     CALL 0x135C, 0
114E  F009     NOP
1150  C007     MOVFF size, __tmp_0
1152  F014     NOP
1154  C008     MOVFF count, digit_cnt
1156  F015     NOP
1158  C009     MOVFF cval, prefix_cnt
115A  F016     NOP
115C  C00A     MOVFF larg, sign_char
115E  F017     NOP
1160  6A0C     CLRF 0xC, ACCESS
1162  0E50     MOVLW 0x50
1164  6E0D     MOVWF 0xD, ACCESS
1166  0E43     MOVLW 0x43
1168  6E0E     MOVWF romstring, ACCESS
116A  0E47     MOVLW 0x47
116C  6E0F     MOVWF 0xF, ACCESS
116E  ECC5     CALL 0x178A, 0
1170  F00B     NOP
1172  0A01     XORLW 0x1
1174  E152     BNZ 0x121A
80:                        }
81:                        else if(hrvInterval2 > hrvInterval1){
1176  D039     BRA 0x11EA
1178  C40F     MOVFF hrvInterval1, 0xC
117A  F00C     NOP
117C  C410     MOVFF 0x410, 0xD
117E  F00D     NOP
1180  C411     MOVFF 0x411, romstring
1182  F00E     NOP
1184  C412     MOVFF 0x412, 0xF
1186  F00F     NOP
1188  C413     MOVFF hrvInterval2, size
118A  F007     NOP
118C  C414     MOVFF 0x414, count
118E  F008     NOP
1190  C415     MOVFF 0x415, cval
1192  F009     NOP
1194  C416     MOVFF 0x416, larg
1196  F00A     NOP
1198  ECC5     CALL 0x178A, 0
119A  F00B     NOP
119C  0A01     XORLW 0x1
119E  E13D     BNZ 0x121A
82:                            if(hrvInterval2 - hrvInterval1 > 50000){ numNN50++; }
11A0  C40F     MOVFF hrvInterval1, 0xC
11A2  F00C     NOP
11A4  C410     MOVFF 0x410, 0xD
11A6  F00D     NOP
11A8  C411     MOVFF 0x411, romstring
11AA  F00E     NOP
11AC  C412     MOVFF 0x412, 0xF
11AE  F00F     NOP
11B0  C413     MOVFF hrvInterval2, size
11B2  F007     NOP
11B4  C414     MOVFF 0x414, count
11B6  F008     NOP
11B8  C415     MOVFF 0x415, cval
11BA  F009     NOP
11BC  C416     MOVFF 0x416, larg
11BE  F00A     NOP
11C0  ECAE     CALL 0x135C, 0
11C2  F009     NOP
11C4  C007     MOVFF size, __tmp_0
11C6  F014     NOP
11C8  C008     MOVFF count, digit_cnt
11CA  F015     NOP
11CC  C009     MOVFF cval, prefix_cnt
11CE  F016     NOP
11D0  C00A     MOVFF larg, sign_char
11D2  F017     NOP
11D4  6A0C     CLRF 0xC, ACCESS
11D6  0E50     MOVLW 0x50
11D8  6E0D     MOVWF 0xD, ACCESS
11DA  0E43     MOVLW 0x43
11DC  6E0E     MOVWF romstring, ACCESS
11DE  0E47     MOVLW 0x47
11E0  6E0F     MOVWF 0xF, ACCESS
11E2  ECC5     CALL 0x178A, 0
11E4  F00B     NOP
11E6  0A01     XORLW 0x1
11E8  E118     BNZ 0x121A
11EA  C41B     MOVFF numNN50, size
11EC  F007     NOP
11EE  C41C     MOVFF 0x41C, count
11F0  F008     NOP
11F2  C41D     MOVFF 0x41D, cval
11F4  F009     NOP
11F6  C41E     MOVFF 0x41E, larg
11F8  F00A     NOP
11FA  6A0C     CLRF 0xC, ACCESS
11FC  6A0D     CLRF 0xD, ACCESS
11FE  0E80     MOVLW 0x80
1200  6E0E     MOVWF romstring, ACCESS
1202  0E3F     MOVLW 0x3F
1204  6E0F     MOVWF 0xF, ACCESS
1206  ECAF     CALL 0x135E, 0
1208  F009     NOP
120A  C007     MOVFF size, numNN50
120C  F41B     NOP
120E  C008     MOVFF count, 0x41C
1210  F41C     NOP
1212  C009     MOVFF cval, 0x41D
1214  F41D     NOP
1216  C00A     MOVFF larg, 0x41E
1218  F41E     NOP
83:                            
84:                        }
85:            
86:                        HRVvar3 = 0;
121A  0104     MOVLB 0x4
121C  6B0B     CLRF 0xB, BANKED
121E  6B0C     CLRF 0xC, BANKED
1220  6B0D     CLRF 0xD, BANKED
1222  6B0E     CLRF romstring, BANKED
87:                        HRVvar2 = 0;
1224  6B07     CLRF size, BANKED
1226  6B08     CLRF count, BANKED
1228  6B09     CLRF cval, BANKED
122A  6B0A     CLRF larg, BANKED
88:                        HRVvar1 = 0;
122C  6B03     CLRF flags, BANKED
122E  6B04     CLRF average_temperature, BANKED
1230  6B05     CLRF precision, BANKED
1232  6B06     CLRF have_precision, BANKED
89:                        hrvInterval1 = 0;
1234  6B0F     CLRF 0xF, BANKED
1236  6B10     CLRF 0x10, BANKED
1238  6B11     CLRF ramstring, BANKED
123A  6B12     CLRF 0x12, BANKED
90:                        hrvInterval2 = 0;
123C  6B13     CLRF n, BANKED
123E  6B14     CLRF __tmp_0, BANKED
1240  6B15     CLRF digit_cnt, BANKED
1242  6B16     CLRF prefix_cnt, BANKED
91:                    }                                
92:                
93:            }           
1244  0012     RETURN 0
94:            
95:            
96:            void HRVprint()
97:            {
98:                    if(timer1Period%19 == 0 && numNN50>0){
1246  C401     MOVFF timer1Period, __tmp_0
1248  F014     NOP
124A  C402     MOVFF 0x402, digit_cnt
124C  F015     NOP
124E  0E13     MOVLW 0x13
1250  6E0D     MOVWF 0xD, ACCESS
1252  6A0E     CLRF romstring, ACCESS
1254  C401     MOVFF timer1Period, count
1256  F008     NOP
1258  C402     MOVFF 0x402, cval
125A  F009     NOP
125C  EC05     CALL 0x160A, 0
125E  F00B     NOP
1260  C004     MOVFF average_temperature, __tmp_0
1262  F014     NOP
1264  C005     MOVFF precision, digit_cnt
1266  F015     NOP
1268  5004     MOVF average_temperature, W, ACCESS
126A  1005     IORWF precision, W, ACCESS
126C  E13A     BNZ 0x12E2
126E  6A0C     CLRF 0xC, ACCESS
1270  6A0D     CLRF 0xD, ACCESS
1272  6A0E     CLRF romstring, ACCESS
1274  6A0F     CLRF 0xF, ACCESS
1276  C41B     MOVFF numNN50, size
1278  F007     NOP
127A  C41C     MOVFF 0x41C, count
127C  F008     NOP
127E  C41D     MOVFF 0x41D, cval
1280  F009     NOP
1282  C41E     MOVFF 0x41E, larg
1284  F00A     NOP
1286  ECC5     CALL 0x178A, 0
1288  F00B     NOP
128A  0A01     XORLW 0x1
128C  E12A     BNZ 0x12E2
99:                        pNN50 = (numNN50/numNNInterval)*100.0;;
128E  C417     MOVFF numNNInterval, 0xC
1290  F00C     NOP
1292  C418     MOVFF 0x418, 0xD
1294  F00D     NOP
1296  C419     MOVFF 0x419, romstring
1298  F00E     NOP
129A  C41A     MOVFF 0x41A, 0xF
129C  F00F     NOP
129E  C41B     MOVFF numNN50, size
12A0  F007     NOP
12A2  C41C     MOVFF 0x41C, count
12A4  F008     NOP
12A6  C41D     MOVFF 0x41D, cval
12A8  F009     NOP
12AA  C41E     MOVFF 0x41E, larg
12AC  F00A     NOP
12AE  EC45     CALL 0x148A, 0
12B0  F00A     NOP
12B2  C007     MOVFF size, __tmp_0
12B4  F014     NOP
12B6  C008     MOVFF count, digit_cnt
12B8  F015     NOP
12BA  C009     MOVFF cval, prefix_cnt
12BC  F016     NOP
12BE  C00A     MOVFF larg, sign_char
12C0  F017     NOP
12C2  6A0C     CLRF 0xC, ACCESS
12C4  6A0D     CLRF 0xD, ACCESS
12C6  0EC8     MOVLW 0xC8
12C8  6E0E     MOVWF romstring, ACCESS
12CA  0E42     MOVLW 0x42
12CC  6E0F     MOVWF 0xF, ACCESS
12CE  EC98     CALL 0x1530, 0
12D0  F00A     NOP
12D2  C007     MOVFF size, pNN50
12D4  F41F     NOP
12D6  C008     MOVFF count, 0x420
12D8  F420     NOP
12DA  C009     MOVFF cval, 0x421
12DC  F421     NOP
12DE  C00A     MOVFF larg, 0x422
12E0  F422     NOP
100:                       //itoa(pNN50, hrv_Output);       
101:                       //SetDDRamAddr(0x40);
102:                       //while(BusyXLCD());
103:                       //putrsXLCD("HRV:         ");
104:                       //while(BusyXLCD());
105:                       //SetDDRamAddr(0x4B); 
106:                       //putsXLCD(hrv_Output);
107:                       //while(BusyXLCD());
108:                       //SetDDRamAddr(0x4E);
109:                       //putrsXLCD(" %");
110:                       //while(BusyXLCD());
111:                   }
112:                   timer1Period = timer1Period++;
12E2  0104     MOVLB 0x4
12E4  2B01     INCF ccp2mx, F, BANKED
12E6  0E00     MOVLW 0x0
12E8  2302     ADDWFC total_temperature, F, BANKED
113:                   WriteTimer1(0x0BDC);
12EA  0EDC     MOVLW 0xDC
12EC  6EE6     MOVWF POSTINC1, ACCESS
12EE  0E0B     MOVLW 0xB
12F0  6EE6     MOVWF POSTINC1, ACCESS
12F2  EC0D     CALL 0x301A, 0
12F4  F018     NOP
12F6  52E5     MOVF POSTDEC1, F, ACCESS
12F8  52E5     MOVF POSTDEC1, F, ACCESS
114:           }
12FA  0012     RETURN 0
